
target/thumbv7em-none-eabihf/debug/mpu-check:     file format elf32-littlearm


Disassembly of section .text:

08000194 <Reset>:
 8000194:	b580      	push	{r7, lr}
 8000196:	466f      	mov	r7, sp
 8000198:	f002 fb80 	bl	800289c <DefaultPreInit>
 800019c:	f240 0000 	movw	r0, #0
 80001a0:	f2c2 0000 	movt	r0, #8192	; 0x2000
 80001a4:	f240 010c 	movw	r1, #12
 80001a8:	f2c2 0100 	movt	r1, #8192	; 0x2000
 80001ac:	f002 fa19 	bl	80025e2 <_ZN2r08zero_bss17hff5248be5a666d9cE>
 80001b0:	f240 0000 	movw	r0, #0
 80001b4:	f2c2 0000 	movt	r0, #8192	; 0x2000
 80001b8:	f240 0100 	movw	r1, #0
 80001bc:	f2c2 0100 	movt	r1, #8192	; 0x2000
 80001c0:	f644 42d8 	movw	r2, #19672	; 0x4cd8
 80001c4:	f6c0 0200 	movt	r2, #2048	; 0x800
 80001c8:	f002 fa3a 	bl	8002640 <_ZN2r09init_data17h19dee7516a6ecc4eE>
 80001cc:	f64e 5088 	movw	r0, #60808	; 0xed88
 80001d0:	f2ce 0000 	movt	r0, #57344	; 0xe000
 80001d4:	6801      	ldr	r1, [r0, #0]
 80001d6:	f441 0170 	orr.w	r1, r1, #15728640	; 0xf00000
 80001da:	f002 faa9 	bl	8002730 <_ZN4core3ptr14write_volatile17h7682d87e9740cdf5E>
 80001de:	f002 fb4d 	bl	800287c <ResetTrampoline>

080001e2 <_ZN7stm32f39stm32f30311Peripherals4take17hf8ee2393e5d1b061E>:
 80001e2:	b580      	push	{r7, lr}
 80001e4:	466f      	mov	r7, sp
 80001e6:	f000 fc29 	bl	8000a3c <_ZN8cortex_m9interrupt4free17h36a455341f931d66E>
 80001ea:	bd80      	pop	{r7, pc}

080001ec <_ZN7stm32f39stm32f30311Peripherals5steal17hea2d798f7ea20a6cE>:
 80001ec:	f240 0108 	movw	r1, #8
 80001f0:	f2c2 0100 	movt	r1, #8192	; 0x2000
 80001f4:	2001      	movs	r0, #1
 80001f6:	7008      	strb	r0, [r1, #0]
 80001f8:	4770      	bx	lr

080001fa <_ZN77_$LT$cortex_m..register..primask..Primask$u20$as$u20$core..cmp..PartialEq$GT$2eq17h6a0f673a411698b7E>:
 80001fa:	b084      	sub	sp, #16
 80001fc:	9000      	str	r0, [sp, #0]
 80001fe:	9101      	str	r1, [sp, #4]
 8000200:	7800      	ldrb	r0, [r0, #0]
 8000202:	f000 0001 	and.w	r0, r0, #1
 8000206:	9002      	str	r0, [sp, #8]
 8000208:	7809      	ldrb	r1, [r1, #0]
 800020a:	f001 0101 	and.w	r1, r1, #1
 800020e:	9103      	str	r1, [sp, #12]
 8000210:	1a40      	subs	r0, r0, r1
 8000212:	fab0 f080 	clz	r0, r0
 8000216:	0940      	lsrs	r0, r0, #5
 8000218:	b004      	add	sp, #16
 800021a:	4770      	bx	lr

0800021c <_ZN8cortex_m8register7primask4read17h5141a3aacc46e5a7E>:
 800021c:	b580      	push	{r7, lr}
 800021e:	466f      	mov	r7, sp
 8000220:	b082      	sub	sp, #8
 8000222:	f002 fc9c 	bl	8002b5e <__primask_r>
 8000226:	9001      	str	r0, [sp, #4]
 8000228:	f000 0001 	and.w	r0, r0, #1
 800022c:	2801      	cmp	r0, #1
 800022e:	d004      	beq.n	800023a <_ZN8cortex_m8register7primask4read17h5141a3aacc46e5a7E+0x1e>
 8000230:	e7ff      	b.n	8000232 <_ZN8cortex_m8register7primask4read17h5141a3aacc46e5a7E+0x16>
 8000232:	2000      	movs	r0, #0
 8000234:	f807 0c05 	strb.w	r0, [r7, #-5]
 8000238:	e003      	b.n	8000242 <_ZN8cortex_m8register7primask4read17h5141a3aacc46e5a7E+0x26>
 800023a:	2001      	movs	r0, #1
 800023c:	f807 0c05 	strb.w	r0, [r7, #-5]
 8000240:	e7ff      	b.n	8000242 <_ZN8cortex_m8register7primask4read17h5141a3aacc46e5a7E+0x26>
 8000242:	f817 0c05 	ldrb.w	r0, [r7, #-5]
 8000246:	f000 0001 	and.w	r0, r0, #1
 800024a:	b002      	add	sp, #8
 800024c:	bd80      	pop	{r7, pc}

0800024e <_ZN8cortex_m8register7primask7Primask9is_active17h30b05046076c38edE>:
 800024e:	b580      	push	{r7, lr}
 8000250:	466f      	mov	r7, sp
 8000252:	b082      	sub	sp, #8
 8000254:	f807 0c01 	strb.w	r0, [r7, #-1]
 8000258:	f643 1108 	movw	r1, #14600	; 0x3908
 800025c:	f6c0 0100 	movt	r1, #2048	; 0x800
 8000260:	1e78      	subs	r0, r7, #1
 8000262:	f7ff ffca 	bl	80001fa <_ZN77_$LT$cortex_m..register..primask..Primask$u20$as$u20$core..cmp..PartialEq$GT$2eq17h6a0f673a411698b7E>
 8000266:	b002      	add	sp, #8
 8000268:	bd80      	pop	{r7, pc}

0800026a <_ZN45_$LT$$LP$$RP$$u20$as$u20$core..fmt..Debug$GT$3fmt17h0990f6e0bedef50bE>:
 800026a:	b580      	push	{r7, lr}
 800026c:	466f      	mov	r7, sp
 800026e:	b084      	sub	sp, #16
 8000270:	9101      	str	r1, [sp, #4]
 8000272:	4601      	mov	r1, r0
 8000274:	9801      	ldr	r0, [sp, #4]
 8000276:	9102      	str	r1, [sp, #8]
 8000278:	9003      	str	r0, [sp, #12]
 800027a:	f643 1109 	movw	r1, #14601	; 0x3909
 800027e:	f6c0 0100 	movt	r1, #2048	; 0x800
 8000282:	2202      	movs	r2, #2
 8000284:	f002 fece 	bl	8003024 <_ZN4core3fmt9Formatter3pad17hbd7112f77e2050f2E>
 8000288:	b004      	add	sp, #16
 800028a:	bd80      	pop	{r7, pc}

0800028c <TIM2>:
 800028c:	b672      	cpsid	i
 800028e:	4668      	mov	r0, sp
 8000290:	4671      	mov	r1, lr
 8000292:	f000 f801 	bl	8000298 <_timer2>
 8000296:	defe      	udf	#254	; 0xfe

08000298 <_timer2>:
 8000298:	b580      	push	{r7, lr}
 800029a:	466f      	mov	r7, sp
 800029c:	b084      	sub	sp, #16
 800029e:	4600      	mov	r0, r0
 80002a0:	9001      	str	r0, [sp, #4]
 80002a2:	4608      	mov	r0, r1
 80002a4:	9002      	str	r0, [sp, #8]
 80002a6:	f643 1047 	movw	r0, #14663	; 0x3947
 80002aa:	f6c0 0000 	movt	r0, #2048	; 0x800
 80002ae:	211c      	movs	r1, #28
 80002b0:	f000 fceb 	bl	8000c8a <_ZN20cortex_m_semihosting6export11hstdout_str17hf4e1cb40319dee4eE>
 80002b4:	f807 0c02 	strb.w	r0, [r7, #-2]
 80002b8:	f817 0c02 	ldrb.w	r0, [r7, #-2]
 80002bc:	07c0      	lsls	r0, r0, #31
 80002be:	b190      	cbz	r0, 80002e6 <_timer2+0x4e>
 80002c0:	e7ff      	b.n	80002c2 <_timer2+0x2a>
 80002c2:	f643 1070 	movw	r0, #14704	; 0x3970
 80002c6:	f6c0 0000 	movt	r0, #2048	; 0x800
 80002ca:	4669      	mov	r1, sp
 80002cc:	6008      	str	r0, [r1, #0]
 80002ce:	f643 101c 	movw	r0, #14620	; 0x391c
 80002d2:	f6c0 0000 	movt	r0, #2048	; 0x800
 80002d6:	f643 130c 	movw	r3, #14604	; 0x390c
 80002da:	f6c0 0300 	movt	r3, #2048	; 0x800
 80002de:	212b      	movs	r1, #43	; 0x2b
 80002e0:	1e7a      	subs	r2, r7, #1
 80002e2:	f002 fcf5 	bl	8002cd0 <_ZN4core6result13unwrap_failed17h30039348cb6cd5deE>
 80002e6:	9802      	ldr	r0, [sp, #8]
 80002e8:	3007      	adds	r0, #7
 80002ea:	b960      	cbnz	r0, 8000306 <_timer2+0x6e>
 80002ec:	e7ff      	b.n	80002ee <_timer2+0x56>
 80002ee:	9801      	ldr	r0, [sp, #4]
 80002f0:	f380 8808 	msr	MSP, r0
 80002f4:	bc0f      	pop	{r0, r1, r2, r3}
 80002f6:	f85d cb04 	ldr.w	ip, [sp], #4
 80002fa:	bc20      	pop	{r5}
 80002fc:	bc40      	pop	{r6}
 80002fe:	bc20      	pop	{r5}
 8000300:	46b7      	mov	pc, r6
 8000302:	bf00      	nop
 8000304:	defe      	udf	#254	; 0xfe
 8000306:	9801      	ldr	r0, [sp, #4]
 8000308:	f380 8808 	msr	MSP, r0
 800030c:	e8bd 4080 	ldmia.w	sp!, {r7, lr}
 8000310:	defe      	udf	#254	; 0xfe

08000312 <main>:
 8000312:	b580      	push	{r7, lr}
 8000314:	466f      	mov	r7, sp
 8000316:	f000 f800 	bl	800031a <_ZN9mpu_check18__cortex_m_rt_main17h119b273ab608ad75E>

0800031a <_ZN9mpu_check18__cortex_m_rt_main17h119b273ab608ad75E>:
 800031a:	b580      	push	{r7, lr}
 800031c:	466f      	mov	r7, sp
 800031e:	b0ae      	sub	sp, #184	; 0xb8
 8000320:	f7ff ff5f 	bl	80001e2 <_ZN7stm32f39stm32f30311Peripherals4take17hf8ee2393e5d1b061E>
 8000324:	f807 0c03 	strb.w	r0, [r7, #-3]
 8000328:	f817 0c03 	ldrb.w	r0, [r7, #-3]
 800032c:	07c0      	lsls	r0, r0, #31
 800032e:	b930      	cbnz	r0, 800033e <_ZN9mpu_check18__cortex_m_rt_main17h119b273ab608ad75E+0x24>
 8000330:	e7ff      	b.n	8000332 <_ZN9mpu_check18__cortex_m_rt_main17h119b273ab608ad75E+0x18>
 8000332:	f643 1080 	movw	r0, #14720	; 0x3980
 8000336:	f6c0 0000 	movt	r0, #2048	; 0x800
 800033a:	f002 fc56 	bl	8002bea <_ZN4core6option13unwrap_failed17h8d194fb1406a9394E>
 800033e:	f001 f85b 	bl	80013f8 <_ZN79_$LT$stm32f3..stm32f303..FLASH$u20$as$u20$stm32f3xx_hal_v2..flash..FlashExt$GT$9constrain17h2bb622bbdfcadd6dE>
 8000342:	a807      	add	r0, sp, #28
 8000344:	9003      	str	r0, [sp, #12]
 8000346:	f001 f862 	bl	800140e <_ZN73_$LT$stm32f3..stm32f303..RCC$u20$as$u20$stm32f3xx_hal_v2..rcc..RccExt$GT$9constrain17h9108120d8149964fE>
 800034a:	9a03      	ldr	r2, [sp, #12]
 800034c:	a917      	add	r1, sp, #92	; 0x5c
 800034e:	4608      	mov	r0, r1
 8000350:	e8b2 5038 	ldmia.w	r2!, {r3, r4, r5, ip, lr}
 8000354:	e8a0 5038 	stmia.w	r0!, {r3, r4, r5, ip, lr}
 8000358:	e892 5078 	ldmia.w	r2, {r3, r4, r5, r6, ip, lr}
 800035c:	e880 5078 	stmia.w	r0, {r3, r4, r5, r6, ip, lr}
 8000360:	a812      	add	r0, sp, #72	; 0x48
 8000362:	9002      	str	r0, [sp, #8]
 8000364:	f1a7 029d 	sub.w	r2, r7, #157	; 0x9d
 8000368:	f001 faeb 	bl	8001942 <_ZN16stm32f3xx_hal_v23rcc4CFGR6freeze17h5374275a958d1cd2E>
 800036c:	2005      	movs	r0, #5
 800036e:	f000 ff6a 	bl	8001246 <_ZN54_$LT$u32$u20$as$u20$stm32f3xx_hal_v2..time..U32Ext$GT$2hz17h855bf6da905bfaecE>
 8000372:	f8dd c008 	ldr.w	ip, [sp, #8]
 8000376:	4601      	mov	r1, r0
 8000378:	9803      	ldr	r0, [sp, #12]
 800037a:	f100 032c 	add.w	r3, r0, #44	; 0x2c
 800037e:	aa28      	add	r2, sp, #160	; 0xa0
 8000380:	4610      	mov	r0, r2
 8000382:	e89c 4170 	ldmia.w	ip, {r4, r5, r6, r8, lr}
 8000386:	e880 4170 	stmia.w	r0, {r4, r5, r6, r8, lr}
 800038a:	a822      	add	r0, sp, #136	; 0x88
 800038c:	9004      	str	r0, [sp, #16]
 800038e:	f000 fa76 	bl	800087e <_ZN16stm32f3xx_hal_v25timer37Timer$LT$stm32f3..stm32f303..TIM2$GT$4tim217hbdbaa899e5f4e781E>
 8000392:	9804      	ldr	r0, [sp, #16]
 8000394:	f000 fd91 	bl	8000eba <_ZN16stm32f3xx_hal_v25timer37Timer$LT$stm32f3..stm32f303..TIM2$GT$6listen17h289d62fd4285dd5aE>
 8000398:	201c      	movs	r0, #28
 800039a:	9005      	str	r0, [sp, #20]
 800039c:	f807 0c1a 	strb.w	r0, [r7, #-26]
 80003a0:	f817 0c1a 	ldrb.w	r0, [r7, #-26]
 80003a4:	f000 f86a 	bl	800047c <_ZN8cortex_m10peripheral4nvic44_$LT$impl$u20$cortex_m..peripheral..NVIC$GT$6unpend17hf308b5d2761bb2f6E>
 80003a8:	9805      	ldr	r0, [sp, #20]
 80003aa:	f807 0c19 	strb.w	r0, [r7, #-25]
 80003ae:	f817 0c19 	ldrb.w	r0, [r7, #-25]
 80003b2:	f000 f822 	bl	80003fa <_ZN8cortex_m10peripheral4nvic44_$LT$impl$u20$cortex_m..peripheral..NVIC$GT$6unmask17hcd8173f8ede55aebE>
 80003b6:	e7ff      	b.n	80003b8 <_ZN9mpu_check18__cortex_m_rt_main17h119b273ab608ad75E+0x9e>
 80003b8:	f643 1090 	movw	r0, #14736	; 0x3990
 80003bc:	f6c0 0000 	movt	r0, #2048	; 0x800
 80003c0:	2105      	movs	r1, #5
 80003c2:	f000 fc62 	bl	8000c8a <_ZN20cortex_m_semihosting6export11hstdout_str17hf4e1cb40319dee4eE>
 80003c6:	f807 0c02 	strb.w	r0, [r7, #-2]
 80003ca:	f817 0c02 	ldrb.w	r0, [r7, #-2]
 80003ce:	07c0      	lsls	r0, r0, #31
 80003d0:	b190      	cbz	r0, 80003f8 <_ZN9mpu_check18__cortex_m_rt_main17h119b273ab608ad75E+0xde>
 80003d2:	e7ff      	b.n	80003d4 <_ZN9mpu_check18__cortex_m_rt_main17h119b273ab608ad75E+0xba>
 80003d4:	f643 1098 	movw	r0, #14744	; 0x3998
 80003d8:	f6c0 0000 	movt	r0, #2048	; 0x800
 80003dc:	4669      	mov	r1, sp
 80003de:	6008      	str	r0, [r1, #0]
 80003e0:	f643 101c 	movw	r0, #14620	; 0x391c
 80003e4:	f6c0 0000 	movt	r0, #2048	; 0x800
 80003e8:	f643 130c 	movw	r3, #14604	; 0x390c
 80003ec:	f6c0 0300 	movt	r3, #2048	; 0x800
 80003f0:	212b      	movs	r1, #43	; 0x2b
 80003f2:	1e7a      	subs	r2, r7, #1
 80003f4:	f002 fc6c 	bl	8002cd0 <_ZN4core6result13unwrap_failed17h30039348cb6cd5deE>
 80003f8:	e7de      	b.n	80003b8 <_ZN9mpu_check18__cortex_m_rt_main17h119b273ab608ad75E+0x9e>

080003fa <_ZN8cortex_m10peripheral4nvic44_$LT$impl$u20$cortex_m..peripheral..NVIC$GT$6unmask17hcd8173f8ede55aebE>:
 80003fa:	b580      	push	{r7, lr}
 80003fc:	466f      	mov	r7, sp
 80003fe:	b08c      	sub	sp, #48	; 0x30
 8000400:	f807 0c1b 	strb.w	r0, [r7, #-27]
 8000404:	f000 f87b 	bl	80004fe <_ZN58_$LT$T$u20$as$u20$cortex_m..interrupt..InterruptNumber$GT$6number17h4517d9cecae315a8E>
 8000408:	4601      	mov	r1, r0
 800040a:	9103      	str	r1, [sp, #12]
 800040c:	f827 0c1a 	strh.w	r0, [r7, #-26]
 8000410:	f3c0 104a 	ubfx	r0, r0, #5, #11
 8000414:	f827 0c0e 	strh.w	r0, [r7, #-14]
 8000418:	4601      	mov	r1, r0
 800041a:	9104      	str	r1, [sp, #16]
 800041c:	280f      	cmp	r0, #15
 800041e:	d810      	bhi.n	8000442 <_ZN8cortex_m10peripheral4nvic44_$LT$impl$u20$cortex_m..peripheral..NVIC$GT$6unmask17hcd8173f8ede55aebE+0x48>
 8000420:	e7ff      	b.n	8000422 <_ZN8cortex_m10peripheral4nvic44_$LT$impl$u20$cortex_m..peripheral..NVIC$GT$6unmask17hcd8173f8ede55aebE+0x28>
 8000422:	9803      	ldr	r0, [sp, #12]
 8000424:	9a04      	ldr	r2, [sp, #16]
 8000426:	f24e 1100 	movw	r1, #57600	; 0xe100
 800042a:	f2ce 0100 	movt	r1, #57344	; 0xe000
 800042e:	eb01 0182 	add.w	r1, r1, r2, lsl #2
 8000432:	9101      	str	r1, [sp, #4]
 8000434:	f000 001f 	and.w	r0, r0, #31
 8000438:	4601      	mov	r1, r0
 800043a:	9102      	str	r1, [sp, #8]
 800043c:	2820      	cmp	r0, #32
 800043e:	d308      	bcc.n	8000452 <_ZN8cortex_m10peripheral4nvic44_$LT$impl$u20$cortex_m..peripheral..NVIC$GT$6unmask17hcd8173f8ede55aebE+0x58>
 8000440:	e016      	b.n	8000470 <_ZN8cortex_m10peripheral4nvic44_$LT$impl$u20$cortex_m..peripheral..NVIC$GT$6unmask17hcd8173f8ede55aebE+0x76>
 8000442:	9804      	ldr	r0, [sp, #16]
 8000444:	f643 220c 	movw	r2, #14860	; 0x3a0c
 8000448:	f6c0 0200 	movt	r2, #2048	; 0x800
 800044c:	2110      	movs	r1, #16
 800044e:	f002 fc21 	bl	8002c94 <_ZN4core9panicking18panic_bounds_check17h51a0e808ab013ae4E>
 8000452:	9801      	ldr	r0, [sp, #4]
 8000454:	9902      	ldr	r1, [sp, #8]
 8000456:	f001 021f 	and.w	r2, r1, #31
 800045a:	2101      	movs	r1, #1
 800045c:	4091      	lsls	r1, r2
 800045e:	9006      	str	r0, [sp, #24]
 8000460:	9107      	str	r1, [sp, #28]
 8000462:	9009      	str	r0, [sp, #36]	; 0x24
 8000464:	910a      	str	r1, [sp, #40]	; 0x28
 8000466:	900b      	str	r0, [sp, #44]	; 0x2c
 8000468:	f002 fa7e 	bl	8002968 <_ZN4core3ptr14write_volatile17ha91faba4b6935fe1E>
 800046c:	b00c      	add	sp, #48	; 0x30
 800046e:	bd80      	pop	{r7, pc}
 8000470:	f643 201c 	movw	r0, #14876	; 0x3a1c
 8000474:	f6c0 0000 	movt	r0, #2048	; 0x800
 8000478:	f003 f975 	bl	8003766 <_ZN4core9panicking11panic_const24panic_const_shl_overflow17hb0b6b21a6bef7f06E>

0800047c <_ZN8cortex_m10peripheral4nvic44_$LT$impl$u20$cortex_m..peripheral..NVIC$GT$6unpend17hf308b5d2761bb2f6E>:
 800047c:	b580      	push	{r7, lr}
 800047e:	466f      	mov	r7, sp
 8000480:	b08c      	sub	sp, #48	; 0x30
 8000482:	f807 0c1b 	strb.w	r0, [r7, #-27]
 8000486:	f000 f83a 	bl	80004fe <_ZN58_$LT$T$u20$as$u20$cortex_m..interrupt..InterruptNumber$GT$6number17h4517d9cecae315a8E>
 800048a:	4601      	mov	r1, r0
 800048c:	9103      	str	r1, [sp, #12]
 800048e:	f827 0c1a 	strh.w	r0, [r7, #-26]
 8000492:	f3c0 104a 	ubfx	r0, r0, #5, #11
 8000496:	f827 0c0e 	strh.w	r0, [r7, #-14]
 800049a:	4601      	mov	r1, r0
 800049c:	9104      	str	r1, [sp, #16]
 800049e:	280f      	cmp	r0, #15
 80004a0:	d810      	bhi.n	80004c4 <_ZN8cortex_m10peripheral4nvic44_$LT$impl$u20$cortex_m..peripheral..NVIC$GT$6unpend17hf308b5d2761bb2f6E+0x48>
 80004a2:	e7ff      	b.n	80004a4 <_ZN8cortex_m10peripheral4nvic44_$LT$impl$u20$cortex_m..peripheral..NVIC$GT$6unpend17hf308b5d2761bb2f6E+0x28>
 80004a4:	9803      	ldr	r0, [sp, #12]
 80004a6:	9a04      	ldr	r2, [sp, #16]
 80004a8:	f24e 2180 	movw	r1, #57984	; 0xe280
 80004ac:	f2ce 0100 	movt	r1, #57344	; 0xe000
 80004b0:	eb01 0182 	add.w	r1, r1, r2, lsl #2
 80004b4:	9101      	str	r1, [sp, #4]
 80004b6:	f000 001f 	and.w	r0, r0, #31
 80004ba:	4601      	mov	r1, r0
 80004bc:	9102      	str	r1, [sp, #8]
 80004be:	2820      	cmp	r0, #32
 80004c0:	d308      	bcc.n	80004d4 <_ZN8cortex_m10peripheral4nvic44_$LT$impl$u20$cortex_m..peripheral..NVIC$GT$6unpend17hf308b5d2761bb2f6E+0x58>
 80004c2:	e016      	b.n	80004f2 <_ZN8cortex_m10peripheral4nvic44_$LT$impl$u20$cortex_m..peripheral..NVIC$GT$6unpend17hf308b5d2761bb2f6E+0x76>
 80004c4:	9804      	ldr	r0, [sp, #16]
 80004c6:	f643 222c 	movw	r2, #14892	; 0x3a2c
 80004ca:	f6c0 0200 	movt	r2, #2048	; 0x800
 80004ce:	2110      	movs	r1, #16
 80004d0:	f002 fbe0 	bl	8002c94 <_ZN4core9panicking18panic_bounds_check17h51a0e808ab013ae4E>
 80004d4:	9801      	ldr	r0, [sp, #4]
 80004d6:	9902      	ldr	r1, [sp, #8]
 80004d8:	f001 021f 	and.w	r2, r1, #31
 80004dc:	2101      	movs	r1, #1
 80004de:	4091      	lsls	r1, r2
 80004e0:	9006      	str	r0, [sp, #24]
 80004e2:	9107      	str	r1, [sp, #28]
 80004e4:	9009      	str	r0, [sp, #36]	; 0x24
 80004e6:	910a      	str	r1, [sp, #40]	; 0x28
 80004e8:	900b      	str	r0, [sp, #44]	; 0x2c
 80004ea:	f002 fa3d 	bl	8002968 <_ZN4core3ptr14write_volatile17ha91faba4b6935fe1E>
 80004ee:	b00c      	add	sp, #48	; 0x30
 80004f0:	bd80      	pop	{r7, pc}
 80004f2:	f643 203c 	movw	r0, #14908	; 0x3a3c
 80004f6:	f6c0 0000 	movt	r0, #2048	; 0x800
 80004fa:	f003 f934 	bl	8003766 <_ZN4core9panicking11panic_const24panic_const_shl_overflow17hb0b6b21a6bef7f06E>

080004fe <_ZN58_$LT$T$u20$as$u20$cortex_m..interrupt..InterruptNumber$GT$6number17h4517d9cecae315a8E>:
 80004fe:	b082      	sub	sp, #8
 8000500:	f88d 0002 	strb.w	r0, [sp, #2]
 8000504:	f10d 0002 	add.w	r0, sp, #2
 8000508:	9001      	str	r0, [sp, #4]
 800050a:	f89d 0002 	ldrb.w	r0, [sp, #2]
 800050e:	f88d 0003 	strb.w	r0, [sp, #3]
 8000512:	f89d 0003 	ldrb.w	r0, [sp, #3]
 8000516:	b002      	add	sp, #8
 8000518:	4770      	bx	lr

0800051a <_ZN7stm32f39stm32f30311Peripherals4take28_$u7b$$u7b$closure$u7d$$u7d$17he3d494f5358f9aa3E>:
 800051a:	b580      	push	{r7, lr}
 800051c:	466f      	mov	r7, sp
 800051e:	b082      	sub	sp, #8
 8000520:	9001      	str	r0, [sp, #4]
 8000522:	f240 0008 	movw	r0, #8
 8000526:	f2c2 0000 	movt	r0, #8192	; 0x2000
 800052a:	7800      	ldrb	r0, [r0, #0]
 800052c:	07c0      	lsls	r0, r0, #31
 800052e:	b930      	cbnz	r0, 800053e <_ZN7stm32f39stm32f30311Peripherals4take28_$u7b$$u7b$closure$u7d$$u7d$17he3d494f5358f9aa3E+0x24>
 8000530:	e7ff      	b.n	8000532 <_ZN7stm32f39stm32f30311Peripherals4take28_$u7b$$u7b$closure$u7d$$u7d$17he3d494f5358f9aa3E+0x18>
 8000532:	f7ff fe5b 	bl	80001ec <_ZN7stm32f39stm32f30311Peripherals5steal17hea2d798f7ea20a6cE>
 8000536:	2001      	movs	r0, #1
 8000538:	f807 0c06 	strb.w	r0, [r7, #-6]
 800053c:	e003      	b.n	8000546 <_ZN7stm32f39stm32f30311Peripherals4take28_$u7b$$u7b$closure$u7d$$u7d$17he3d494f5358f9aa3E+0x2c>
 800053e:	2000      	movs	r0, #0
 8000540:	f807 0c06 	strb.w	r0, [r7, #-6]
 8000544:	e7ff      	b.n	8000546 <_ZN7stm32f39stm32f30311Peripherals4take28_$u7b$$u7b$closure$u7d$$u7d$17he3d494f5358f9aa3E+0x2c>
 8000546:	f817 0c06 	ldrb.w	r0, [r7, #-6]
 800054a:	f000 0001 	and.w	r0, r0, #1
 800054e:	b002      	add	sp, #8
 8000550:	bd80      	pop	{r7, pc}

08000552 <_ZN8cortex_m9interrupt6enable17hc2f057014ad45348E>:
 8000552:	b580      	push	{r7, lr}
 8000554:	466f      	mov	r7, sp
 8000556:	f002 fb00 	bl	8002b5a <__cpsie>
 800055a:	bd80      	pop	{r7, pc}

0800055c <_ZN8cortex_m9interrupt7disable17h4dad3ab1b31c13fcE>:
 800055c:	b580      	push	{r7, lr}
 800055e:	466f      	mov	r7, sp
 8000560:	f002 faf9 	bl	8002b56 <__cpsid>
 8000564:	bd80      	pop	{r7, pc}

08000566 <_ZN4core7convert3num67_$LT$impl$u20$core..convert..TryFrom$LT$u32$GT$$u20$for$u20$u16$GT$8try_from17haf632f419bc00990E>:
 8000566:	b083      	sub	sp, #12
 8000568:	4601      	mov	r1, r0
 800056a:	9100      	str	r1, [sp, #0]
 800056c:	9102      	str	r1, [sp, #8]
 800056e:	2000      	movs	r0, #0
 8000570:	ebb0 4f11 	cmp.w	r0, r1, lsr #16
 8000574:	d107      	bne.n	8000586 <_ZN4core7convert3num67_$LT$impl$u20$core..convert..TryFrom$LT$u32$GT$$u20$for$u20$u16$GT$8try_from17haf632f419bc00990E+0x20>
 8000576:	e7ff      	b.n	8000578 <_ZN4core7convert3num67_$LT$impl$u20$core..convert..TryFrom$LT$u32$GT$$u20$for$u20$u16$GT$8try_from17haf632f419bc00990E+0x12>
 8000578:	9800      	ldr	r0, [sp, #0]
 800057a:	f8ad 0006 	strh.w	r0, [sp, #6]
 800057e:	2000      	movs	r0, #0
 8000580:	f8ad 0004 	strh.w	r0, [sp, #4]
 8000584:	e00a      	b.n	800059c <_ZN4core7convert3num67_$LT$impl$u20$core..convert..TryFrom$LT$u32$GT$$u20$for$u20$u16$GT$8try_from17haf632f419bc00990E+0x36>
 8000586:	f643 2050 	movw	r0, #14928	; 0x3a50
 800058a:	f6c0 0000 	movt	r0, #2048	; 0x800
 800058e:	8801      	ldrh	r1, [r0, #0]
 8000590:	8840      	ldrh	r0, [r0, #2]
 8000592:	f8ad 1004 	strh.w	r1, [sp, #4]
 8000596:	f8ad 0006 	strh.w	r0, [sp, #6]
 800059a:	e7ff      	b.n	800059c <_ZN4core7convert3num67_$LT$impl$u20$core..convert..TryFrom$LT$u32$GT$$u20$for$u20$u16$GT$8try_from17haf632f419bc00990E+0x36>
 800059c:	f8bd 0004 	ldrh.w	r0, [sp, #4]
 80005a0:	f8bd 1006 	ldrh.w	r1, [sp, #6]
 80005a4:	b003      	add	sp, #12
 80005a6:	4770      	bx	lr

080005a8 <_ZN50_$LT$T$u20$as$u20$core..convert..Into$LT$U$GT$$GT$4into17h955d98d1262de866E>:
 80005a8:	b082      	sub	sp, #8
 80005aa:	9000      	str	r0, [sp, #0]
 80005ac:	9001      	str	r0, [sp, #4]
 80005ae:	b002      	add	sp, #8
 80005b0:	4770      	bx	lr

080005b2 <_ZN113_$LT$stm32f3xx_hal_v2..timer..Timer$LT$stm32f3..stm32f303..TIM2$GT$$u20$as$u20$embedded_hal..timer..CountDown$GT$5start17hca25f2de78812241E>:
 80005b2:	b580      	push	{r7, lr}
 80005b4:	466f      	mov	r7, sp
 80005b6:	b0b8      	sub	sp, #224	; 0xe0
 80005b8:	910b      	str	r1, [sp, #44]	; 0x2c
 80005ba:	900d      	str	r0, [sp, #52]	; 0x34
 80005bc:	9011      	str	r0, [sp, #68]	; 0x44
 80005be:	9112      	str	r1, [sp, #72]	; 0x48
 80005c0:	f000 fcbb 	bl	8000f3a <_ZN16stm32f3xx_hal_v25timer37Timer$LT$stm32f3..stm32f303..TIM2$GT$4stop17h50670098e4a9831aE>
 80005c4:	980b      	ldr	r0, [sp, #44]	; 0x2c
 80005c6:	f643 21b8 	movw	r1, #15032	; 0x3ab8
 80005ca:	f6c0 0100 	movt	r1, #2048	; 0x800
 80005ce:	f7ff ffeb 	bl	80005a8 <_ZN50_$LT$T$u20$as$u20$core..convert..Into$LT$U$GT$$GT$4into17h955d98d1262de866E>
 80005d2:	4601      	mov	r1, r0
 80005d4:	980d      	ldr	r0, [sp, #52]	; 0x34
 80005d6:	460a      	mov	r2, r1
 80005d8:	920c      	str	r2, [sp, #48]	; 0x30
 80005da:	9113      	str	r1, [sp, #76]	; 0x4c
 80005dc:	f001 ffbd 	bl	800255a <_ZN77_$LT$stm32f3..stm32f303..TIM2$u20$as$u20$stm32f3xx_hal_v2..timer..PclkSrc$GT$7get_clk17h2f2aecc30dae4a68E>
 80005e0:	4601      	mov	r1, r0
 80005e2:	980d      	ldr	r0, [sp, #52]	; 0x34
 80005e4:	460a      	mov	r2, r1
 80005e6:	920e      	str	r2, [sp, #56]	; 0x38
 80005e8:	9114      	str	r1, [sp, #80]	; 0x50
 80005ea:	f001 ff7a 	bl	80024e2 <_ZN16stm32f3xx_hal_v23rcc6Clocks5ppre117h1b0b3404c2b51355E>
 80005ee:	b2c0      	uxtb	r0, r0
 80005f0:	2801      	cmp	r0, #1
 80005f2:	d103      	bne.n	80005fc <_ZN113_$LT$stm32f3xx_hal_v2..timer..Timer$LT$stm32f3..stm32f303..TIM2$GT$$u20$as$u20$embedded_hal..timer..CountDown$GT$5start17hca25f2de78812241E+0x4a>
 80005f4:	e7ff      	b.n	80005f6 <_ZN113_$LT$stm32f3xx_hal_v2..timer..Timer$LT$stm32f3..stm32f303..TIM2$GT$$u20$as$u20$embedded_hal..timer..CountDown$GT$5start17hca25f2de78812241E+0x44>
 80005f6:	2001      	movs	r0, #1
 80005f8:	900f      	str	r0, [sp, #60]	; 0x3c
 80005fa:	e002      	b.n	8000602 <_ZN113_$LT$stm32f3xx_hal_v2..timer..Timer$LT$stm32f3..stm32f303..TIM2$GT$$u20$as$u20$embedded_hal..timer..CountDown$GT$5start17hca25f2de78812241E+0x50>
 80005fc:	2002      	movs	r0, #2
 80005fe:	900f      	str	r0, [sp, #60]	; 0x3c
 8000600:	e7ff      	b.n	8000602 <_ZN113_$LT$stm32f3xx_hal_v2..timer..Timer$LT$stm32f3..stm32f303..TIM2$GT$$u20$as$u20$embedded_hal..timer..CountDown$GT$5start17hca25f2de78812241E+0x50>
 8000602:	980e      	ldr	r0, [sp, #56]	; 0x38
 8000604:	990f      	ldr	r1, [sp, #60]	; 0x3c
 8000606:	fba0 1001 	umull	r1, r0, r0, r1
 800060a:	910a      	str	r1, [sp, #40]	; 0x28
 800060c:	b918      	cbnz	r0, 8000616 <_ZN113_$LT$stm32f3xx_hal_v2..timer..Timer$LT$stm32f3..stm32f303..TIM2$GT$$u20$as$u20$embedded_hal..timer..CountDown$GT$5start17hca25f2de78812241E+0x64>
 800060e:	e7ff      	b.n	8000610 <_ZN113_$LT$stm32f3xx_hal_v2..timer..Timer$LT$stm32f3..stm32f303..TIM2$GT$$u20$as$u20$embedded_hal..timer..CountDown$GT$5start17hca25f2de78812241E+0x5e>
 8000610:	980c      	ldr	r0, [sp, #48]	; 0x30
 8000612:	b190      	cbz	r0, 800063a <_ZN113_$LT$stm32f3xx_hal_v2..timer..Timer$LT$stm32f3..stm32f303..TIM2$GT$$u20$as$u20$embedded_hal..timer..CountDown$GT$5start17hca25f2de78812241E+0x88>
 8000614:	e005      	b.n	8000622 <_ZN113_$LT$stm32f3xx_hal_v2..timer..Timer$LT$stm32f3..stm32f303..TIM2$GT$$u20$as$u20$embedded_hal..timer..CountDown$GT$5start17hca25f2de78812241E+0x70>
 8000616:	f643 20b8 	movw	r0, #15032	; 0x3ab8
 800061a:	f6c0 0000 	movt	r0, #2048	; 0x800
 800061e:	f003 f88f 	bl	8003740 <_ZN4core9panicking11panic_const24panic_const_mul_overflow17h7dd007db0c33601cE>
 8000622:	980a      	ldr	r0, [sp, #40]	; 0x28
 8000624:	990c      	ldr	r1, [sp, #48]	; 0x30
 8000626:	fbb0 f0f1 	udiv	r0, r0, r1
 800062a:	4601      	mov	r1, r0
 800062c:	9108      	str	r1, [sp, #32]
 800062e:	9015      	str	r0, [sp, #84]	; 0x54
 8000630:	1e41      	subs	r1, r0, #1
 8000632:	9109      	str	r1, [sp, #36]	; 0x24
 8000634:	2800      	cmp	r0, #0
 8000636:	d040      	beq.n	80006ba <_ZN113_$LT$stm32f3xx_hal_v2..timer..Timer$LT$stm32f3..stm32f303..TIM2$GT$$u20$as$u20$embedded_hal..timer..CountDown$GT$5start17hca25f2de78812241E+0x108>
 8000638:	e005      	b.n	8000646 <_ZN113_$LT$stm32f3xx_hal_v2..timer..Timer$LT$stm32f3..stm32f303..TIM2$GT$$u20$as$u20$embedded_hal..timer..CountDown$GT$5start17hca25f2de78812241E+0x94>
 800063a:	f643 20b8 	movw	r0, #15032	; 0x3ab8
 800063e:	f6c0 0000 	movt	r0, #2048	; 0x800
 8000642:	f003 f8a3 	bl	800378c <_ZN4core9panicking11panic_const23panic_const_div_by_zero17h2a31fcd9fa76bd10E>
 8000646:	9809      	ldr	r0, [sp, #36]	; 0x24
 8000648:	0c00      	lsrs	r0, r0, #16
 800064a:	f7ff ff8c 	bl	8000566 <_ZN4core7convert3num67_$LT$impl$u20$core..convert..TryFrom$LT$u32$GT$$u20$for$u20$u16$GT$8try_from17haf632f419bc00990E>
 800064e:	f000 f9d3 	bl	80009f8 <_ZN4core6result19Result$LT$T$C$E$GT$2ok17h5e63f6481e315741E>
 8000652:	f8ad 0060 	strh.w	r0, [sp, #96]	; 0x60
 8000656:	f8ad 1062 	strh.w	r1, [sp, #98]	; 0x62
 800065a:	f8bd 0060 	ldrh.w	r0, [sp, #96]	; 0x60
 800065e:	b930      	cbnz	r0, 800066e <_ZN113_$LT$stm32f3xx_hal_v2..timer..Timer$LT$stm32f3..stm32f303..TIM2$GT$$u20$as$u20$embedded_hal..timer..CountDown$GT$5start17hca25f2de78812241E+0xbc>
 8000660:	e7ff      	b.n	8000662 <_ZN113_$LT$stm32f3xx_hal_v2..timer..Timer$LT$stm32f3..stm32f303..TIM2$GT$$u20$as$u20$embedded_hal..timer..CountDown$GT$5start17hca25f2de78812241E+0xb0>
 8000662:	f643 20b8 	movw	r0, #15032	; 0x3ab8
 8000666:	f6c0 0000 	movt	r0, #2048	; 0x800
 800066a:	f002 fabe 	bl	8002bea <_ZN4core6option13unwrap_failed17h8d194fb1406a9394E>
 800066e:	980d      	ldr	r0, [sp, #52]	; 0x34
 8000670:	f8bd 1062 	ldrh.w	r1, [sp, #98]	; 0x62
 8000674:	f8ad 1064 	strh.w	r1, [sp, #100]	; 0x64
 8000678:	f8ad 1040 	strh.w	r1, [sp, #64]	; 0x40
 800067c:	3014      	adds	r0, #20
 800067e:	901d      	str	r0, [sp, #116]	; 0x74
 8000680:	2028      	movs	r0, #40	; 0x28
 8000682:	f2c4 0000 	movt	r0, #16384	; 0x4000
 8000686:	9006      	str	r0, [sp, #24]
 8000688:	9025      	str	r0, [sp, #148]	; 0x94
 800068a:	a810      	add	r0, sp, #64	; 0x40
 800068c:	9026      	str	r0, [sp, #152]	; 0x98
 800068e:	2100      	movs	r1, #0
 8000690:	9124      	str	r1, [sp, #144]	; 0x90
 8000692:	a924      	add	r1, sp, #144	; 0x90
 8000694:	f000 f894 	bl	80007c0 <_ZN113_$LT$stm32f3xx_hal_v2..timer..Timer$LT$stm32f3..stm32f303..TIM2$GT$$u20$as$u20$embedded_hal..timer..CountDown$GT$5start28_$u7b$$u7b$closure$u7d$$u7d$17h54d611deb506decdE>
 8000698:	4601      	mov	r1, r0
 800069a:	9806      	ldr	r0, [sp, #24]
 800069c:	6809      	ldr	r1, [r1, #0]
 800069e:	9027      	str	r0, [sp, #156]	; 0x9c
 80006a0:	9128      	str	r1, [sp, #160]	; 0xa0
 80006a2:	9029      	str	r0, [sp, #164]	; 0xa4
 80006a4:	f002 f960 	bl	8002968 <_ZN4core3ptr14write_volatile17ha91faba4b6935fe1E>
 80006a8:	f8bd 0040 	ldrh.w	r0, [sp, #64]	; 0x40
 80006ac:	1c41      	adds	r1, r0, #1
 80006ae:	b288      	uxth	r0, r1
 80006b0:	460a      	mov	r2, r1
 80006b2:	9207      	str	r2, [sp, #28]
 80006b4:	4288      	cmp	r0, r1
 80006b6:	d10f      	bne.n	80006d8 <_ZN113_$LT$stm32f3xx_hal_v2..timer..Timer$LT$stm32f3..stm32f303..TIM2$GT$$u20$as$u20$embedded_hal..timer..CountDown$GT$5start17hca25f2de78812241E+0x126>
 80006b8:	e005      	b.n	80006c6 <_ZN113_$LT$stm32f3xx_hal_v2..timer..Timer$LT$stm32f3..stm32f303..TIM2$GT$$u20$as$u20$embedded_hal..timer..CountDown$GT$5start17hca25f2de78812241E+0x114>
 80006ba:	f643 20b8 	movw	r0, #15032	; 0x3ab8
 80006be:	f6c0 0000 	movt	r0, #2048	; 0x800
 80006c2:	f003 f82a 	bl	800371a <_ZN4core9panicking11panic_const24panic_const_sub_overflow17hda0baad704454db2E>
 80006c6:	9807      	ldr	r0, [sp, #28]
 80006c8:	f827 0c7a 	strh.w	r0, [r7, #-122]
 80006cc:	b280      	uxth	r0, r0
 80006ce:	4601      	mov	r1, r0
 80006d0:	9105      	str	r1, [sp, #20]
 80006d2:	2800      	cmp	r0, #0
 80006d4:	d06e      	beq.n	80007b4 <_ZN113_$LT$stm32f3xx_hal_v2..timer..Timer$LT$stm32f3..stm32f303..TIM2$GT$$u20$as$u20$embedded_hal..timer..CountDown$GT$5start17hca25f2de78812241E+0x202>
 80006d6:	e005      	b.n	80006e4 <_ZN113_$LT$stm32f3xx_hal_v2..timer..Timer$LT$stm32f3..stm32f303..TIM2$GT$$u20$as$u20$embedded_hal..timer..CountDown$GT$5start17hca25f2de78812241E+0x132>
 80006d8:	f643 20b8 	movw	r0, #15032	; 0x3ab8
 80006dc:	f6c0 0000 	movt	r0, #2048	; 0x800
 80006e0:	f003 f808 	bl	80036f4 <_ZN4core9panicking11panic_const24panic_const_add_overflow17hb5ed77c43929dd68E>
 80006e4:	9808      	ldr	r0, [sp, #32]
 80006e6:	9905      	ldr	r1, [sp, #20]
 80006e8:	fbb0 f0f1 	udiv	r0, r0, r1
 80006ec:	f7ff ff3b 	bl	8000566 <_ZN4core7convert3num67_$LT$impl$u20$core..convert..TryFrom$LT$u32$GT$$u20$for$u20$u16$GT$8try_from17haf632f419bc00990E>
 80006f0:	f000 f982 	bl	80009f8 <_ZN4core6result19Result$LT$T$C$E$GT$2ok17h5e63f6481e315741E>
 80006f4:	f827 0c86 	strh.w	r0, [r7, #-134]
 80006f8:	f827 1c84 	strh.w	r1, [r7, #-132]
 80006fc:	f837 0c86 	ldrh.w	r0, [r7, #-134]
 8000700:	b930      	cbnz	r0, 8000710 <_ZN113_$LT$stm32f3xx_hal_v2..timer..Timer$LT$stm32f3..stm32f303..TIM2$GT$$u20$as$u20$embedded_hal..timer..CountDown$GT$5start17hca25f2de78812241E+0x15e>
 8000702:	e7ff      	b.n	8000704 <_ZN113_$LT$stm32f3xx_hal_v2..timer..Timer$LT$stm32f3..stm32f303..TIM2$GT$$u20$as$u20$embedded_hal..timer..CountDown$GT$5start17hca25f2de78812241E+0x152>
 8000704:	f643 20b8 	movw	r0, #15032	; 0x3ab8
 8000708:	f6c0 0000 	movt	r0, #2048	; 0x800
 800070c:	f002 fa6d 	bl	8002bea <_ZN4core6option13unwrap_failed17h8d194fb1406a9394E>
 8000710:	980d      	ldr	r0, [sp, #52]	; 0x34
 8000712:	f837 1c84 	ldrh.w	r1, [r7, #-132]
 8000716:	f827 1c82 	strh.w	r1, [r7, #-130]
 800071a:	f827 1c9e 	strh.w	r1, [r7, #-158]
 800071e:	3014      	adds	r0, #20
 8000720:	9003      	str	r0, [sp, #12]
 8000722:	901c      	str	r0, [sp, #112]	; 0x70
 8000724:	202c      	movs	r0, #44	; 0x2c
 8000726:	f2c4 0000 	movt	r0, #16384	; 0x4000
 800072a:	9000      	str	r0, [sp, #0]
 800072c:	901f      	str	r0, [sp, #124]	; 0x7c
 800072e:	f1a7 009e 	sub.w	r0, r7, #158	; 0x9e
 8000732:	9020      	str	r0, [sp, #128]	; 0x80
 8000734:	2100      	movs	r1, #0
 8000736:	9101      	str	r1, [sp, #4]
 8000738:	911e      	str	r1, [sp, #120]	; 0x78
 800073a:	a91e      	add	r1, sp, #120	; 0x78
 800073c:	f000 f874 	bl	8000828 <_ZN113_$LT$stm32f3xx_hal_v2..timer..Timer$LT$stm32f3..stm32f303..TIM2$GT$$u20$as$u20$embedded_hal..timer..CountDown$GT$5start28_$u7b$$u7b$closure$u7d$$u7d$17ha930a57edb347d13E>
 8000740:	4601      	mov	r1, r0
 8000742:	9800      	ldr	r0, [sp, #0]
 8000744:	6809      	ldr	r1, [r1, #0]
 8000746:	9021      	str	r0, [sp, #132]	; 0x84
 8000748:	9122      	str	r1, [sp, #136]	; 0x88
 800074a:	9023      	str	r0, [sp, #140]	; 0x8c
 800074c:	f002 f90c 	bl	8002968 <_ZN4core3ptr14write_volatile17ha91faba4b6935fe1E>
 8000750:	9801      	ldr	r0, [sp, #4]
 8000752:	9903      	ldr	r1, [sp, #12]
 8000754:	911b      	str	r1, [sp, #108]	; 0x6c
 8000756:	2114      	movs	r1, #20
 8000758:	f2c4 0100 	movt	r1, #16384	; 0x4000
 800075c:	9102      	str	r1, [sp, #8]
 800075e:	912b      	str	r1, [sp, #172]	; 0xac
 8000760:	902a      	str	r0, [sp, #168]	; 0xa8
 8000762:	a82a      	add	r0, sp, #168	; 0xa8
 8000764:	f000 f86f 	bl	8000846 <_ZN113_$LT$stm32f3xx_hal_v2..timer..Timer$LT$stm32f3..stm32f303..TIM2$GT$$u20$as$u20$embedded_hal..timer..CountDown$GT$5start28_$u7b$$u7b$closure$u7d$$u7d$17hc9b63be3ed5d9c93E>
 8000768:	4601      	mov	r1, r0
 800076a:	9802      	ldr	r0, [sp, #8]
 800076c:	6809      	ldr	r1, [r1, #0]
 800076e:	902c      	str	r0, [sp, #176]	; 0xb0
 8000770:	912d      	str	r1, [sp, #180]	; 0xb4
 8000772:	902e      	str	r0, [sp, #184]	; 0xb8
 8000774:	f002 f8f8 	bl	8002968 <_ZN4core3ptr14write_volatile17ha91faba4b6935fe1E>
 8000778:	980d      	ldr	r0, [sp, #52]	; 0x34
 800077a:	f000 fc23 	bl	8000fc4 <_ZN16stm32f3xx_hal_v25timer37Timer$LT$stm32f3..stm32f303..TIM2$GT$27clear_update_interrupt_flag17h568697108e362fffE>
 800077e:	9803      	ldr	r0, [sp, #12]
 8000780:	901a      	str	r0, [sp, #104]	; 0x68
 8000782:	f04f 4080 	mov.w	r0, #1073741824	; 0x40000000
 8000786:	9004      	str	r0, [sp, #16]
 8000788:	9031      	str	r0, [sp, #196]	; 0xc4
 800078a:	9033      	str	r0, [sp, #204]	; 0xcc
 800078c:	9034      	str	r0, [sp, #208]	; 0xd0
 800078e:	f002 f886 	bl	800289e <_ZN4core3ptr13read_volatile17h6d6580fa05e6f41aE>
 8000792:	9032      	str	r0, [sp, #200]	; 0xc8
 8000794:	902f      	str	r0, [sp, #188]	; 0xbc
 8000796:	9030      	str	r0, [sp, #192]	; 0xc0
 8000798:	a82f      	add	r0, sp, #188	; 0xbc
 800079a:	a930      	add	r1, sp, #192	; 0xc0
 800079c:	f000 f81e 	bl	80007dc <_ZN113_$LT$stm32f3xx_hal_v2..timer..Timer$LT$stm32f3..stm32f303..TIM2$GT$$u20$as$u20$embedded_hal..timer..CountDown$GT$5start28_$u7b$$u7b$closure$u7d$$u7d$17h9bf71dd988971d92E>
 80007a0:	4601      	mov	r1, r0
 80007a2:	9804      	ldr	r0, [sp, #16]
 80007a4:	6809      	ldr	r1, [r1, #0]
 80007a6:	9035      	str	r0, [sp, #212]	; 0xd4
 80007a8:	9136      	str	r1, [sp, #216]	; 0xd8
 80007aa:	9037      	str	r0, [sp, #220]	; 0xdc
 80007ac:	f002 f8dc 	bl	8002968 <_ZN4core3ptr14write_volatile17ha91faba4b6935fe1E>
 80007b0:	b038      	add	sp, #224	; 0xe0
 80007b2:	bd80      	pop	{r7, pc}
 80007b4:	f643 20b8 	movw	r0, #15032	; 0x3ab8
 80007b8:	f6c0 0000 	movt	r0, #2048	; 0x800
 80007bc:	f002 ffe6 	bl	800378c <_ZN4core9panicking11panic_const23panic_const_div_by_zero17h2a31fcd9fa76bd10E>

080007c0 <_ZN113_$LT$stm32f3xx_hal_v2..timer..Timer$LT$stm32f3..stm32f303..TIM2$GT$$u20$as$u20$embedded_hal..timer..CountDown$GT$5start28_$u7b$$u7b$closure$u7d$$u7d$17h54d611deb506decdE>:
 80007c0:	b085      	sub	sp, #20
 80007c2:	9000      	str	r0, [sp, #0]
 80007c4:	9101      	str	r1, [sp, #4]
 80007c6:	9102      	str	r1, [sp, #8]
 80007c8:	9800      	ldr	r0, [sp, #0]
 80007ca:	8800      	ldrh	r0, [r0, #0]
 80007cc:	9103      	str	r1, [sp, #12]
 80007ce:	f8ad 0012 	strh.w	r0, [sp, #18]
 80007d2:	9903      	ldr	r1, [sp, #12]
 80007d4:	8008      	strh	r0, [r1, #0]
 80007d6:	9803      	ldr	r0, [sp, #12]
 80007d8:	b005      	add	sp, #20
 80007da:	4770      	bx	lr

080007dc <_ZN113_$LT$stm32f3xx_hal_v2..timer..Timer$LT$stm32f3..stm32f303..TIM2$GT$$u20$as$u20$embedded_hal..timer..CountDown$GT$5start28_$u7b$$u7b$closure$u7d$$u7d$17h9bf71dd988971d92E>:
 80007dc:	b580      	push	{r7, lr}
 80007de:	466f      	mov	r7, sp
 80007e0:	b08c      	sub	sp, #48	; 0x30
 80007e2:	9101      	str	r1, [sp, #4]
 80007e4:	9003      	str	r0, [sp, #12]
 80007e6:	9104      	str	r1, [sp, #16]
 80007e8:	9105      	str	r1, [sp, #20]
 80007ea:	9107      	str	r1, [sp, #28]
 80007ec:	2001      	movs	r0, #1
 80007ee:	f807 0c15 	strb.w	r0, [r7, #-21]
 80007f2:	f817 0c15 	ldrb.w	r0, [r7, #-21]
 80007f6:	9108      	str	r1, [sp, #32]
 80007f8:	f000 0001 	and.w	r0, r0, #1
 80007fc:	f807 0c09 	strb.w	r0, [r7, #-9]
 8000800:	f643 4128 	movw	r1, #15400	; 0x3c28
 8000804:	f6c0 0100 	movt	r1, #2048	; 0x800
 8000808:	f000 fd34 	bl	8001274 <_ZN50_$LT$T$u20$as$u20$core..convert..Into$LT$U$GT$$GT$4into17hca3807e3b612d347E>
 800080c:	9901      	ldr	r1, [sp, #4]
 800080e:	4602      	mov	r2, r0
 8000810:	910a      	str	r1, [sp, #40]	; 0x28
 8000812:	f807 2c01 	strb.w	r2, [r7, #-1]
 8000816:	990a      	ldr	r1, [sp, #40]	; 0x28
 8000818:	6808      	ldr	r0, [r1, #0]
 800081a:	f020 0001 	bic.w	r0, r0, #1
 800081e:	4410      	add	r0, r2
 8000820:	6008      	str	r0, [r1, #0]
 8000822:	980a      	ldr	r0, [sp, #40]	; 0x28
 8000824:	b00c      	add	sp, #48	; 0x30
 8000826:	bd80      	pop	{r7, pc}

08000828 <_ZN113_$LT$stm32f3xx_hal_v2..timer..Timer$LT$stm32f3..stm32f303..TIM2$GT$$u20$as$u20$embedded_hal..timer..CountDown$GT$5start28_$u7b$$u7b$closure$u7d$$u7d$17ha930a57edb347d13E>:
 8000828:	b086      	sub	sp, #24
 800082a:	9100      	str	r1, [sp, #0]
 800082c:	4601      	mov	r1, r0
 800082e:	9800      	ldr	r0, [sp, #0]
 8000830:	9101      	str	r1, [sp, #4]
 8000832:	9002      	str	r0, [sp, #8]
 8000834:	9901      	ldr	r1, [sp, #4]
 8000836:	8809      	ldrh	r1, [r1, #0]
 8000838:	f8ad 100e 	strh.w	r1, [sp, #14]
 800083c:	9004      	str	r0, [sp, #16]
 800083e:	9105      	str	r1, [sp, #20]
 8000840:	6001      	str	r1, [r0, #0]
 8000842:	b006      	add	sp, #24
 8000844:	4770      	bx	lr

08000846 <_ZN113_$LT$stm32f3xx_hal_v2..timer..Timer$LT$stm32f3..stm32f303..TIM2$GT$$u20$as$u20$embedded_hal..timer..CountDown$GT$5start28_$u7b$$u7b$closure$u7d$$u7d$17hc9b63be3ed5d9c93E>:
 8000846:	b580      	push	{r7, lr}
 8000848:	466f      	mov	r7, sp
 800084a:	b088      	sub	sp, #32
 800084c:	9000      	str	r0, [sp, #0]
 800084e:	9002      	str	r0, [sp, #8]
 8000850:	9003      	str	r0, [sp, #12]
 8000852:	9004      	str	r0, [sp, #16]
 8000854:	9005      	str	r0, [sp, #20]
 8000856:	f643 40a0 	movw	r0, #15520	; 0x3ca0
 800085a:	f6c0 0000 	movt	r0, #2048	; 0x800
 800085e:	f001 fe84 	bl	800256a <_ZN50_$LT$T$u20$as$u20$core..convert..Into$LT$U$GT$$GT$4into17h86431373eeed5da2E>
 8000862:	4602      	mov	r2, r0
 8000864:	9800      	ldr	r0, [sp, #0]
 8000866:	9006      	str	r0, [sp, #24]
 8000868:	f807 2c01 	strb.w	r2, [r7, #-1]
 800086c:	9906      	ldr	r1, [sp, #24]
 800086e:	6808      	ldr	r0, [r1, #0]
 8000870:	f020 0001 	bic.w	r0, r0, #1
 8000874:	4410      	add	r0, r2
 8000876:	6008      	str	r0, [r1, #0]
 8000878:	9806      	ldr	r0, [sp, #24]
 800087a:	b008      	add	sp, #32
 800087c:	bd80      	pop	{r7, pc}

0800087e <_ZN16stm32f3xx_hal_v25timer37Timer$LT$stm32f3..stm32f303..TIM2$GT$4tim217hbdbaa899e5f4e781E>:
 800087e:	b5f0      	push	{r4, r5, r6, r7, lr}
 8000880:	af03      	add	r7, sp, #12
 8000882:	f84d bd04 	str.w	fp, [sp, #-4]!
 8000886:	b0ac      	sub	sp, #176	; 0xb0
 8000888:	9302      	str	r3, [sp, #8]
 800088a:	9204      	str	r2, [sp, #16]
 800088c:	9105      	str	r1, [sp, #20]
 800088e:	4602      	mov	r2, r0
 8000890:	9802      	ldr	r0, [sp, #8]
 8000892:	9206      	str	r2, [sp, #24]
 8000894:	910f      	str	r1, [sp, #60]	; 0x3c
 8000896:	9010      	str	r0, [sp, #64]	; 0x40
 8000898:	f000 fdcd 	bl	8001436 <_ZN16stm32f3xx_hal_v23rcc4APB13enr17h8cc4423261840716E>
 800089c:	9000      	str	r0, [sp, #0]
 800089e:	9025      	str	r0, [sp, #148]	; 0x94
 80008a0:	9027      	str	r0, [sp, #156]	; 0x9c
 80008a2:	9028      	str	r0, [sp, #160]	; 0xa0
 80008a4:	f001 fffb 	bl	800289e <_ZN4core3ptr13read_volatile17h6d6580fa05e6f41aE>
 80008a8:	9026      	str	r0, [sp, #152]	; 0x98
 80008aa:	9023      	str	r0, [sp, #140]	; 0x8c
 80008ac:	9024      	str	r0, [sp, #144]	; 0x90
 80008ae:	a823      	add	r0, sp, #140	; 0x8c
 80008b0:	a924      	add	r1, sp, #144	; 0x90
 80008b2:	f000 f86a 	bl	800098a <_ZN16stm32f3xx_hal_v25timer37Timer$LT$stm32f3..stm32f303..TIM2$GT$4tim228_$u7b$$u7b$closure$u7d$$u7d$17h22b25d7273109c96E>
 80008b6:	4601      	mov	r1, r0
 80008b8:	9800      	ldr	r0, [sp, #0]
 80008ba:	6809      	ldr	r1, [r1, #0]
 80008bc:	9029      	str	r0, [sp, #164]	; 0xa4
 80008be:	912a      	str	r1, [sp, #168]	; 0xa8
 80008c0:	902b      	str	r0, [sp, #172]	; 0xac
 80008c2:	f002 f851 	bl	8002968 <_ZN4core3ptr14write_volatile17ha91faba4b6935fe1E>
 80008c6:	9802      	ldr	r0, [sp, #8]
 80008c8:	f000 fdbd 	bl	8001446 <_ZN16stm32f3xx_hal_v23rcc4APB14rstr17h9b92f27c38107c57E>
 80008cc:	9001      	str	r0, [sp, #4]
 80008ce:	901c      	str	r0, [sp, #112]	; 0x70
 80008d0:	901e      	str	r0, [sp, #120]	; 0x78
 80008d2:	901f      	str	r0, [sp, #124]	; 0x7c
 80008d4:	f001 ffe3 	bl	800289e <_ZN4core3ptr13read_volatile17h6d6580fa05e6f41aE>
 80008d8:	901d      	str	r0, [sp, #116]	; 0x74
 80008da:	901a      	str	r0, [sp, #104]	; 0x68
 80008dc:	901b      	str	r0, [sp, #108]	; 0x6c
 80008de:	a81a      	add	r0, sp, #104	; 0x68
 80008e0:	a91b      	add	r1, sp, #108	; 0x6c
 80008e2:	f000 f835 	bl	8000950 <_ZN16stm32f3xx_hal_v25timer37Timer$LT$stm32f3..stm32f303..TIM2$GT$4tim228_$u7b$$u7b$closure$u7d$$u7d$17h0c2a5c5d4902b66bE>
 80008e6:	4601      	mov	r1, r0
 80008e8:	9801      	ldr	r0, [sp, #4]
 80008ea:	6809      	ldr	r1, [r1, #0]
 80008ec:	9020      	str	r0, [sp, #128]	; 0x80
 80008ee:	9121      	str	r1, [sp, #132]	; 0x84
 80008f0:	9022      	str	r0, [sp, #136]	; 0x88
 80008f2:	f002 f839 	bl	8002968 <_ZN4core3ptr14write_volatile17ha91faba4b6935fe1E>
 80008f6:	9802      	ldr	r0, [sp, #8]
 80008f8:	f000 fda5 	bl	8001446 <_ZN16stm32f3xx_hal_v23rcc4APB14rstr17h9b92f27c38107c57E>
 80008fc:	9003      	str	r0, [sp, #12]
 80008fe:	9013      	str	r0, [sp, #76]	; 0x4c
 8000900:	9015      	str	r0, [sp, #84]	; 0x54
 8000902:	9016      	str	r0, [sp, #88]	; 0x58
 8000904:	f001 ffcb 	bl	800289e <_ZN4core3ptr13read_volatile17h6d6580fa05e6f41aE>
 8000908:	9014      	str	r0, [sp, #80]	; 0x50
 800090a:	9011      	str	r0, [sp, #68]	; 0x44
 800090c:	9012      	str	r0, [sp, #72]	; 0x48
 800090e:	a811      	add	r0, sp, #68	; 0x44
 8000910:	a912      	add	r1, sp, #72	; 0x48
 8000912:	f000 f860 	bl	80009d6 <_ZN16stm32f3xx_hal_v25timer37Timer$LT$stm32f3..stm32f303..TIM2$GT$4tim228_$u7b$$u7b$closure$u7d$$u7d$17h8c101c3808a2ea9dE>
 8000916:	4601      	mov	r1, r0
 8000918:	9803      	ldr	r0, [sp, #12]
 800091a:	6809      	ldr	r1, [r1, #0]
 800091c:	9017      	str	r0, [sp, #92]	; 0x5c
 800091e:	9118      	str	r1, [sp, #96]	; 0x60
 8000920:	9019      	str	r0, [sp, #100]	; 0x64
 8000922:	f002 f821 	bl	8002968 <_ZN4core3ptr14write_volatile17ha91faba4b6935fe1E>
 8000926:	9b04      	ldr	r3, [sp, #16]
 8000928:	9905      	ldr	r1, [sp, #20]
 800092a:	a809      	add	r0, sp, #36	; 0x24
 800092c:	9007      	str	r0, [sp, #28]
 800092e:	4602      	mov	r2, r0
 8000930:	e893 5070 	ldmia.w	r3, {r4, r5, r6, ip, lr}
 8000934:	e882 5070 	stmia.w	r2, {r4, r5, r6, ip, lr}
 8000938:	f7ff fe3b 	bl	80005b2 <_ZN113_$LT$stm32f3xx_hal_v2..timer..Timer$LT$stm32f3..stm32f303..TIM2$GT$$u20$as$u20$embedded_hal..timer..CountDown$GT$5start17hca25f2de78812241E>
 800093c:	9806      	ldr	r0, [sp, #24]
 800093e:	9907      	ldr	r1, [sp, #28]
 8000940:	e891 501c 	ldmia.w	r1, {r2, r3, r4, ip, lr}
 8000944:	e880 501c 	stmia.w	r0, {r2, r3, r4, ip, lr}
 8000948:	b02c      	add	sp, #176	; 0xb0
 800094a:	f85d bb04 	ldr.w	fp, [sp], #4
 800094e:	bdf0      	pop	{r4, r5, r6, r7, pc}

08000950 <_ZN16stm32f3xx_hal_v25timer37Timer$LT$stm32f3..stm32f303..TIM2$GT$4tim228_$u7b$$u7b$closure$u7d$$u7d$17h0c2a5c5d4902b66bE>:
 8000950:	b580      	push	{r7, lr}
 8000952:	466f      	mov	r7, sp
 8000954:	b08a      	sub	sp, #40	; 0x28
 8000956:	9101      	str	r1, [sp, #4]
 8000958:	9003      	str	r0, [sp, #12]
 800095a:	9104      	str	r1, [sp, #16]
 800095c:	9105      	str	r1, [sp, #20]
 800095e:	9106      	str	r1, [sp, #24]
 8000960:	9107      	str	r1, [sp, #28]
 8000962:	f643 30b0 	movw	r0, #15280	; 0x3bb0
 8000966:	f6c0 0000 	movt	r0, #2048	; 0x800
 800096a:	f000 fc27 	bl	80011bc <_ZN50_$LT$T$u20$as$u20$core..convert..Into$LT$U$GT$$GT$4into17hdb6dc264fb6a8147E>
 800096e:	9901      	ldr	r1, [sp, #4]
 8000970:	4602      	mov	r2, r0
 8000972:	9108      	str	r1, [sp, #32]
 8000974:	f807 2c01 	strb.w	r2, [r7, #-1]
 8000978:	9908      	ldr	r1, [sp, #32]
 800097a:	6808      	ldr	r0, [r1, #0]
 800097c:	f020 0001 	bic.w	r0, r0, #1
 8000980:	4410      	add	r0, r2
 8000982:	6008      	str	r0, [r1, #0]
 8000984:	9808      	ldr	r0, [sp, #32]
 8000986:	b00a      	add	sp, #40	; 0x28
 8000988:	bd80      	pop	{r7, pc}

0800098a <_ZN16stm32f3xx_hal_v25timer37Timer$LT$stm32f3..stm32f303..TIM2$GT$4tim228_$u7b$$u7b$closure$u7d$$u7d$17h22b25d7273109c96E>:
 800098a:	b580      	push	{r7, lr}
 800098c:	466f      	mov	r7, sp
 800098e:	b08c      	sub	sp, #48	; 0x30
 8000990:	9101      	str	r1, [sp, #4]
 8000992:	9003      	str	r0, [sp, #12]
 8000994:	9104      	str	r1, [sp, #16]
 8000996:	9105      	str	r1, [sp, #20]
 8000998:	9107      	str	r1, [sp, #28]
 800099a:	2001      	movs	r0, #1
 800099c:	f807 0c15 	strb.w	r0, [r7, #-21]
 80009a0:	f817 0c15 	ldrb.w	r0, [r7, #-21]
 80009a4:	9108      	str	r1, [sp, #32]
 80009a6:	f000 0001 	and.w	r0, r0, #1
 80009aa:	f807 0c09 	strb.w	r0, [r7, #-9]
 80009ae:	f643 3134 	movw	r1, #15156	; 0x3b34
 80009b2:	f6c0 0100 	movt	r1, #2048	; 0x800
 80009b6:	f000 fbeb 	bl	8001190 <_ZN50_$LT$T$u20$as$u20$core..convert..Into$LT$U$GT$$GT$4into17h716d485b053b16edE>
 80009ba:	9901      	ldr	r1, [sp, #4]
 80009bc:	4602      	mov	r2, r0
 80009be:	910a      	str	r1, [sp, #40]	; 0x28
 80009c0:	f807 2c01 	strb.w	r2, [r7, #-1]
 80009c4:	990a      	ldr	r1, [sp, #40]	; 0x28
 80009c6:	6808      	ldr	r0, [r1, #0]
 80009c8:	f020 0001 	bic.w	r0, r0, #1
 80009cc:	4410      	add	r0, r2
 80009ce:	6008      	str	r0, [r1, #0]
 80009d0:	980a      	ldr	r0, [sp, #40]	; 0x28
 80009d2:	b00c      	add	sp, #48	; 0x30
 80009d4:	bd80      	pop	{r7, pc}

080009d6 <_ZN16stm32f3xx_hal_v25timer37Timer$LT$stm32f3..stm32f303..TIM2$GT$4tim228_$u7b$$u7b$closure$u7d$$u7d$17h8c101c3808a2ea9dE>:
 80009d6:	b087      	sub	sp, #28
 80009d8:	9001      	str	r0, [sp, #4]
 80009da:	9102      	str	r1, [sp, #8]
 80009dc:	9103      	str	r1, [sp, #12]
 80009de:	9104      	str	r1, [sp, #16]
 80009e0:	9105      	str	r1, [sp, #20]
 80009e2:	2000      	movs	r0, #0
 80009e4:	f88d 001b 	strb.w	r0, [sp, #27]
 80009e8:	9905      	ldr	r1, [sp, #20]
 80009ea:	6808      	ldr	r0, [r1, #0]
 80009ec:	f020 0001 	bic.w	r0, r0, #1
 80009f0:	6008      	str	r0, [r1, #0]
 80009f2:	9805      	ldr	r0, [sp, #20]
 80009f4:	b007      	add	sp, #28
 80009f6:	4770      	bx	lr

080009f8 <_ZN4core6result19Result$LT$T$C$E$GT$2ok17h5e63f6481e315741E>:
 80009f8:	b083      	sub	sp, #12
 80009fa:	f8ad 0002 	strh.w	r0, [sp, #2]
 80009fe:	f8ad 1004 	strh.w	r1, [sp, #4]
 8000a02:	f8bd 0002 	ldrh.w	r0, [sp, #2]
 8000a06:	b950      	cbnz	r0, 8000a1e <_ZN4core6result19Result$LT$T$C$E$GT$2ok17h5e63f6481e315741E+0x26>
 8000a08:	e7ff      	b.n	8000a0a <_ZN4core6result19Result$LT$T$C$E$GT$2ok17h5e63f6481e315741E+0x12>
 8000a0a:	f8bd 0004 	ldrh.w	r0, [sp, #4]
 8000a0e:	f8ad 000a 	strh.w	r0, [sp, #10]
 8000a12:	f8ad 0008 	strh.w	r0, [sp, #8]
 8000a16:	2001      	movs	r0, #1
 8000a18:	f8ad 0006 	strh.w	r0, [sp, #6]
 8000a1c:	e003      	b.n	8000a26 <_ZN4core6result19Result$LT$T$C$E$GT$2ok17h5e63f6481e315741E+0x2e>
 8000a1e:	2000      	movs	r0, #0
 8000a20:	f8ad 0006 	strh.w	r0, [sp, #6]
 8000a24:	e7ff      	b.n	8000a26 <_ZN4core6result19Result$LT$T$C$E$GT$2ok17h5e63f6481e315741E+0x2e>
 8000a26:	f8bd 0002 	ldrh.w	r0, [sp, #2]
 8000a2a:	b930      	cbnz	r0, 8000a3a <_ZN4core6result19Result$LT$T$C$E$GT$2ok17h5e63f6481e315741E+0x42>
 8000a2c:	e7ff      	b.n	8000a2e <_ZN4core6result19Result$LT$T$C$E$GT$2ok17h5e63f6481e315741E+0x36>
 8000a2e:	f8bd 0006 	ldrh.w	r0, [sp, #6]
 8000a32:	f8bd 1008 	ldrh.w	r1, [sp, #8]
 8000a36:	b003      	add	sp, #12
 8000a38:	4770      	bx	lr
 8000a3a:	e7f8      	b.n	8000a2e <_ZN4core6result19Result$LT$T$C$E$GT$2ok17h5e63f6481e315741E+0x36>

08000a3c <_ZN8cortex_m9interrupt4free17h36a455341f931d66E>:
 8000a3c:	b580      	push	{r7, lr}
 8000a3e:	466f      	mov	r7, sp
 8000a40:	b084      	sub	sp, #16
 8000a42:	f7ff fbeb 	bl	800021c <_ZN8cortex_m8register7primask4read17h5141a3aacc46e5a7E>
 8000a46:	9001      	str	r0, [sp, #4]
 8000a48:	f807 0c02 	strb.w	r0, [r7, #-2]
 8000a4c:	f7ff fd86 	bl	800055c <_ZN8cortex_m9interrupt7disable17h4dad3ab1b31c13fcE>
 8000a50:	f002 f888 	bl	8002b64 <_ZN10bare_metal15CriticalSection3new17h1f98d97984e361d0E>
 8000a54:	a803      	add	r0, sp, #12
 8000a56:	f7ff fd60 	bl	800051a <_ZN7stm32f39stm32f30311Peripherals4take28_$u7b$$u7b$closure$u7d$$u7d$17he3d494f5358f9aa3E>
 8000a5a:	4601      	mov	r1, r0
 8000a5c:	9801      	ldr	r0, [sp, #4]
 8000a5e:	460a      	mov	r2, r1
 8000a60:	9202      	str	r2, [sp, #8]
 8000a62:	f807 1c01 	strb.w	r1, [r7, #-1]
 8000a66:	f7ff fbf2 	bl	800024e <_ZN8cortex_m8register7primask7Primask9is_active17h30b05046076c38edE>
 8000a6a:	b928      	cbnz	r0, 8000a78 <_ZN8cortex_m9interrupt4free17h36a455341f931d66E+0x3c>
 8000a6c:	e7ff      	b.n	8000a6e <_ZN8cortex_m9interrupt4free17h36a455341f931d66E+0x32>
 8000a6e:	9802      	ldr	r0, [sp, #8]
 8000a70:	f000 0001 	and.w	r0, r0, #1
 8000a74:	b004      	add	sp, #16
 8000a76:	bd80      	pop	{r7, pc}
 8000a78:	f7ff fd6b 	bl	8000552 <_ZN8cortex_m9interrupt6enable17hc2f057014ad45348E>
 8000a7c:	e7f7      	b.n	8000a6e <_ZN8cortex_m9interrupt4free17h36a455341f931d66E+0x32>

08000a7e <_ZN153_$LT$core..result..Result$LT$T$C$F$GT$$u20$as$u20$core..ops..try_trait..FromResidual$LT$core..result..Result$LT$core..convert..Infallible$C$E$GT$$GT$$GT$13from_residual17hdae77eedbb55e9a7E>:
 8000a7e:	b081      	sub	sp, #4
 8000a80:	2001      	movs	r0, #1
 8000a82:	f88d 0001 	strb.w	r0, [sp, #1]
 8000a86:	f89d 0001 	ldrb.w	r0, [sp, #1]
 8000a8a:	f000 0001 	and.w	r0, r0, #1
 8000a8e:	b001      	add	sp, #4
 8000a90:	4770      	bx	lr

08000a92 <_ZN4core3mem4drop17hb5feb6e619113acbE>:
 8000a92:	b081      	sub	sp, #4
 8000a94:	b001      	add	sp, #4
 8000a96:	4770      	bx	lr

08000a98 <_ZN4core3ops8function6FnOnce9call_once17h676ead2bf2ae2b53E>:
 8000a98:	b580      	push	{r7, lr}
 8000a9a:	466f      	mov	r7, sp
 8000a9c:	b082      	sub	sp, #8
 8000a9e:	f7ff fff8 	bl	8000a92 <_ZN4core3mem4drop17hb5feb6e619113acbE>
 8000aa2:	b002      	add	sp, #8
 8000aa4:	bd80      	pop	{r7, pc}

08000aa6 <_ZN4core5slice29_$LT$impl$u20$$u5b$T$u5d$$GT$8is_empty17h93791ba6a342527eE>:
 8000aa6:	b082      	sub	sp, #8
 8000aa8:	9000      	str	r0, [sp, #0]
 8000aaa:	9101      	str	r1, [sp, #4]
 8000aac:	fab1 f081 	clz	r0, r1
 8000ab0:	0940      	lsrs	r0, r0, #5
 8000ab2:	b002      	add	sp, #8
 8000ab4:	4770      	bx	lr

08000ab6 <_ZN4core6option15Option$LT$T$GT$6as_mut17h9261f1a2ea10e6d9E>:
 8000ab6:	b084      	sub	sp, #16
 8000ab8:	9000      	str	r0, [sp, #0]
 8000aba:	9002      	str	r0, [sp, #8]
 8000abc:	6800      	ldr	r0, [r0, #0]
 8000abe:	b918      	cbnz	r0, 8000ac8 <_ZN4core6option15Option$LT$T$GT$6as_mut17h9261f1a2ea10e6d9E+0x12>
 8000ac0:	e7ff      	b.n	8000ac2 <_ZN4core6option15Option$LT$T$GT$6as_mut17h9261f1a2ea10e6d9E+0xc>
 8000ac2:	2000      	movs	r0, #0
 8000ac4:	9001      	str	r0, [sp, #4]
 8000ac6:	e004      	b.n	8000ad2 <_ZN4core6option15Option$LT$T$GT$6as_mut17h9261f1a2ea10e6d9E+0x1c>
 8000ac8:	9800      	ldr	r0, [sp, #0]
 8000aca:	3004      	adds	r0, #4
 8000acc:	9003      	str	r0, [sp, #12]
 8000ace:	9001      	str	r0, [sp, #4]
 8000ad0:	e7ff      	b.n	8000ad2 <_ZN4core6option15Option$LT$T$GT$6as_mut17h9261f1a2ea10e6d9E+0x1c>
 8000ad2:	9801      	ldr	r0, [sp, #4]
 8000ad4:	b004      	add	sp, #16
 8000ad6:	4770      	bx	lr

08000ad8 <_ZN4core6option15Option$LT$T$GT$7is_none17h43c00467442b9ec2E>:
 8000ad8:	b082      	sub	sp, #8
 8000ada:	9001      	str	r0, [sp, #4]
 8000adc:	6800      	ldr	r0, [r0, #0]
 8000ade:	2801      	cmp	r0, #1
 8000ae0:	d104      	bne.n	8000aec <_ZN4core6option15Option$LT$T$GT$7is_none17h43c00467442b9ec2E+0x14>
 8000ae2:	e7ff      	b.n	8000ae4 <_ZN4core6option15Option$LT$T$GT$7is_none17h43c00467442b9ec2E+0xc>
 8000ae4:	2001      	movs	r0, #1
 8000ae6:	f88d 0003 	strb.w	r0, [sp, #3]
 8000aea:	e003      	b.n	8000af4 <_ZN4core6option15Option$LT$T$GT$7is_none17h43c00467442b9ec2E+0x1c>
 8000aec:	2000      	movs	r0, #0
 8000aee:	f88d 0003 	strb.w	r0, [sp, #3]
 8000af2:	e7ff      	b.n	8000af4 <_ZN4core6option15Option$LT$T$GT$7is_none17h43c00467442b9ec2E+0x1c>
 8000af4:	f89d 1003 	ldrb.w	r1, [sp, #3]
 8000af8:	2001      	movs	r0, #1
 8000afa:	4388      	bics	r0, r1
 8000afc:	b002      	add	sp, #8
 8000afe:	4770      	bx	lr

08000b00 <_ZN4core6result19Result$LT$T$C$E$GT$3map17h840b3ce1e93df5dfE>:
 8000b00:	b580      	push	{r7, lr}
 8000b02:	466f      	mov	r7, sp
 8000b04:	b086      	sub	sp, #24
 8000b06:	9000      	str	r0, [sp, #0]
 8000b08:	9101      	str	r1, [sp, #4]
 8000b0a:	9800      	ldr	r0, [sp, #0]
 8000b0c:	b940      	cbnz	r0, 8000b20 <_ZN4core6result19Result$LT$T$C$E$GT$3map17h840b3ce1e93df5dfE+0x20>
 8000b0e:	e7ff      	b.n	8000b10 <_ZN4core6result19Result$LT$T$C$E$GT$3map17h840b3ce1e93df5dfE+0x10>
 8000b10:	9801      	ldr	r0, [sp, #4]
 8000b12:	9005      	str	r0, [sp, #20]
 8000b14:	f000 f93b 	bl	8000d8e <_ZN20cortex_m_semihosting3hio7hstdout28_$u7b$$u7b$closure$u7d$$u7d$17h8daec727f5f6d06cE>
 8000b18:	9003      	str	r0, [sp, #12]
 8000b1a:	2000      	movs	r0, #0
 8000b1c:	9002      	str	r0, [sp, #8]
 8000b1e:	e002      	b.n	8000b26 <_ZN4core6result19Result$LT$T$C$E$GT$3map17h840b3ce1e93df5dfE+0x26>
 8000b20:	2001      	movs	r0, #1
 8000b22:	9002      	str	r0, [sp, #8]
 8000b24:	e7ff      	b.n	8000b26 <_ZN4core6result19Result$LT$T$C$E$GT$3map17h840b3ce1e93df5dfE+0x26>
 8000b26:	9802      	ldr	r0, [sp, #8]
 8000b28:	9903      	ldr	r1, [sp, #12]
 8000b2a:	b006      	add	sp, #24
 8000b2c:	bd80      	pop	{r7, pc}

08000b2e <_ZN4core6result19Result$LT$T$C$E$GT$7map_err17h6d270186e6c1501dE>:
 8000b2e:	b580      	push	{r7, lr}
 8000b30:	466f      	mov	r7, sp
 8000b32:	b082      	sub	sp, #8
 8000b34:	f807 0c05 	strb.w	r0, [r7, #-5]
 8000b38:	f817 0c05 	ldrb.w	r0, [r7, #-5]
 8000b3c:	07c0      	lsls	r0, r0, #31
 8000b3e:	b920      	cbnz	r0, 8000b4a <_ZN4core6result19Result$LT$T$C$E$GT$7map_err17h6d270186e6c1501dE+0x1c>
 8000b40:	e7ff      	b.n	8000b42 <_ZN4core6result19Result$LT$T$C$E$GT$7map_err17h6d270186e6c1501dE+0x14>
 8000b42:	2000      	movs	r0, #0
 8000b44:	f88d 0004 	strb.w	r0, [sp, #4]
 8000b48:	e005      	b.n	8000b56 <_ZN4core6result19Result$LT$T$C$E$GT$7map_err17h6d270186e6c1501dE+0x28>
 8000b4a:	f000 f910 	bl	8000d6e <_ZN71_$LT$cortex_m_semihosting..hio..HStdout$u20$as$u20$core..fmt..Write$GT$9write_str28_$u7b$$u7b$closure$u7d$$u7d$17hf5ad85fd9b98ad74E>
 8000b4e:	2001      	movs	r0, #1
 8000b50:	f88d 0004 	strb.w	r0, [sp, #4]
 8000b54:	e7ff      	b.n	8000b56 <_ZN4core6result19Result$LT$T$C$E$GT$7map_err17h6d270186e6c1501dE+0x28>
 8000b56:	f89d 0004 	ldrb.w	r0, [sp, #4]
 8000b5a:	f000 0001 	and.w	r0, r0, #1
 8000b5e:	b002      	add	sp, #8
 8000b60:	bd80      	pop	{r7, pc}

08000b62 <_ZN4core6result19Result$LT$T$C$E$GT$7map_err17hf73b916e9e6d2628E>:
 8000b62:	b580      	push	{r7, lr}
 8000b64:	466f      	mov	r7, sp
 8000b66:	b082      	sub	sp, #8
 8000b68:	f807 0c05 	strb.w	r0, [r7, #-5]
 8000b6c:	f817 0c05 	ldrb.w	r0, [r7, #-5]
 8000b70:	07c0      	lsls	r0, r0, #31
 8000b72:	b920      	cbnz	r0, 8000b7e <_ZN4core6result19Result$LT$T$C$E$GT$7map_err17hf73b916e9e6d2628E+0x1c>
 8000b74:	e7ff      	b.n	8000b76 <_ZN4core6result19Result$LT$T$C$E$GT$7map_err17hf73b916e9e6d2628E+0x14>
 8000b76:	2000      	movs	r0, #0
 8000b78:	f88d 0004 	strb.w	r0, [sp, #4]
 8000b7c:	e005      	b.n	8000b8a <_ZN4core6result19Result$LT$T$C$E$GT$7map_err17hf73b916e9e6d2628E+0x28>
 8000b7e:	f7ff ff8b 	bl	8000a98 <_ZN4core3ops8function6FnOnce9call_once17h676ead2bf2ae2b53E>
 8000b82:	2001      	movs	r0, #1
 8000b84:	f88d 0004 	strb.w	r0, [sp, #4]
 8000b88:	e7ff      	b.n	8000b8a <_ZN4core6result19Result$LT$T$C$E$GT$7map_err17hf73b916e9e6d2628E+0x28>
 8000b8a:	f89d 0004 	ldrb.w	r0, [sp, #4]
 8000b8e:	f000 0001 	and.w	r0, r0, #1
 8000b92:	b002      	add	sp, #8
 8000b94:	bd80      	pop	{r7, pc}

08000b96 <_ZN77_$LT$cortex_m..register..primask..Primask$u20$as$u20$core..cmp..PartialEq$GT$2eq17hcdde7d2966520c59E>:
 8000b96:	b084      	sub	sp, #16
 8000b98:	9000      	str	r0, [sp, #0]
 8000b9a:	9101      	str	r1, [sp, #4]
 8000b9c:	7800      	ldrb	r0, [r0, #0]
 8000b9e:	f000 0001 	and.w	r0, r0, #1
 8000ba2:	9002      	str	r0, [sp, #8]
 8000ba4:	7809      	ldrb	r1, [r1, #0]
 8000ba6:	f001 0101 	and.w	r1, r1, #1
 8000baa:	9103      	str	r1, [sp, #12]
 8000bac:	1a40      	subs	r0, r0, r1
 8000bae:	fab0 f080 	clz	r0, r0
 8000bb2:	0940      	lsrs	r0, r0, #5
 8000bb4:	b004      	add	sp, #16
 8000bb6:	4770      	bx	lr

08000bb8 <_ZN79_$LT$core..result..Result$LT$T$C$E$GT$$u20$as$u20$core..ops..try_trait..Try$GT$6branch17hed6eeec723e17e7aE>:
 8000bb8:	b086      	sub	sp, #24
 8000bba:	9000      	str	r0, [sp, #0]
 8000bbc:	9101      	str	r1, [sp, #4]
 8000bbe:	9800      	ldr	r0, [sp, #0]
 8000bc0:	b930      	cbnz	r0, 8000bd0 <_ZN79_$LT$core..result..Result$LT$T$C$E$GT$$u20$as$u20$core..ops..try_trait..Try$GT$6branch17hed6eeec723e17e7aE+0x18>
 8000bc2:	e7ff      	b.n	8000bc4 <_ZN79_$LT$core..result..Result$LT$T$C$E$GT$$u20$as$u20$core..ops..try_trait..Try$GT$6branch17hed6eeec723e17e7aE+0xc>
 8000bc4:	9801      	ldr	r0, [sp, #4]
 8000bc6:	9005      	str	r0, [sp, #20]
 8000bc8:	9003      	str	r0, [sp, #12]
 8000bca:	2000      	movs	r0, #0
 8000bcc:	9002      	str	r0, [sp, #8]
 8000bce:	e002      	b.n	8000bd6 <_ZN79_$LT$core..result..Result$LT$T$C$E$GT$$u20$as$u20$core..ops..try_trait..Try$GT$6branch17hed6eeec723e17e7aE+0x1e>
 8000bd0:	2001      	movs	r0, #1
 8000bd2:	9002      	str	r0, [sp, #8]
 8000bd4:	e7ff      	b.n	8000bd6 <_ZN79_$LT$core..result..Result$LT$T$C$E$GT$$u20$as$u20$core..ops..try_trait..Try$GT$6branch17hed6eeec723e17e7aE+0x1e>
 8000bd6:	9802      	ldr	r0, [sp, #8]
 8000bd8:	9903      	ldr	r1, [sp, #12]
 8000bda:	b006      	add	sp, #24
 8000bdc:	4770      	bx	lr

08000bde <_ZN8cortex_m8register7primask4read17h2f7dd8d80728f3b5E>:
 8000bde:	b580      	push	{r7, lr}
 8000be0:	466f      	mov	r7, sp
 8000be2:	b082      	sub	sp, #8
 8000be4:	f001 ffbb 	bl	8002b5e <__primask_r>
 8000be8:	9001      	str	r0, [sp, #4]
 8000bea:	f000 0001 	and.w	r0, r0, #1
 8000bee:	2801      	cmp	r0, #1
 8000bf0:	d004      	beq.n	8000bfc <_ZN8cortex_m8register7primask4read17h2f7dd8d80728f3b5E+0x1e>
 8000bf2:	e7ff      	b.n	8000bf4 <_ZN8cortex_m8register7primask4read17h2f7dd8d80728f3b5E+0x16>
 8000bf4:	2000      	movs	r0, #0
 8000bf6:	f807 0c05 	strb.w	r0, [r7, #-5]
 8000bfa:	e003      	b.n	8000c04 <_ZN8cortex_m8register7primask4read17h2f7dd8d80728f3b5E+0x26>
 8000bfc:	2001      	movs	r0, #1
 8000bfe:	f807 0c05 	strb.w	r0, [r7, #-5]
 8000c02:	e7ff      	b.n	8000c04 <_ZN8cortex_m8register7primask4read17h2f7dd8d80728f3b5E+0x26>
 8000c04:	f817 0c05 	ldrb.w	r0, [r7, #-5]
 8000c08:	f000 0001 	and.w	r0, r0, #1
 8000c0c:	b002      	add	sp, #8
 8000c0e:	bd80      	pop	{r7, pc}

08000c10 <_ZN8cortex_m8register7primask7Primask9is_active17h708e7b2e6e64f3dbE>:
 8000c10:	b580      	push	{r7, lr}
 8000c12:	466f      	mov	r7, sp
 8000c14:	b082      	sub	sp, #8
 8000c16:	f807 0c01 	strb.w	r0, [r7, #-1]
 8000c1a:	f643 41b0 	movw	r1, #15536	; 0x3cb0
 8000c1e:	f6c0 0100 	movt	r1, #2048	; 0x800
 8000c22:	1e78      	subs	r0, r7, #1
 8000c24:	f7ff ffb7 	bl	8000b96 <_ZN77_$LT$cortex_m..register..primask..Primask$u20$as$u20$core..cmp..PartialEq$GT$2eq17hcdde7d2966520c59E>
 8000c28:	b002      	add	sp, #8
 8000c2a:	bd80      	pop	{r7, pc}

08000c2c <_ZN8cortex_m9interrupt4free17haa93005c6975f626E>:
 8000c2c:	b580      	push	{r7, lr}
 8000c2e:	466f      	mov	r7, sp
 8000c30:	b086      	sub	sp, #24
 8000c32:	9000      	str	r0, [sp, #0]
 8000c34:	9004      	str	r0, [sp, #16]
 8000c36:	f7ff ffd2 	bl	8000bde <_ZN8cortex_m8register7primask4read17h2f7dd8d80728f3b5E>
 8000c3a:	9001      	str	r0, [sp, #4]
 8000c3c:	f807 0c02 	strb.w	r0, [r7, #-2]
 8000c40:	f000 f81e 	bl	8000c80 <_ZN8cortex_m9interrupt7disable17h0aa1e2ab9b2a75c8E>
 8000c44:	f001 ff8e 	bl	8002b64 <_ZN10bare_metal15CriticalSection3new17h1f98d97984e361d0E>
 8000c48:	9800      	ldr	r0, [sp, #0]
 8000c4a:	f1a7 0109 	sub.w	r1, r7, #9
 8000c4e:	f000 f826 	bl	8000c9e <_ZN20cortex_m_semihosting6export11hstdout_str28_$u7b$$u7b$closure$u7d$$u7d$17h43e5960e8a275ac8E>
 8000c52:	4601      	mov	r1, r0
 8000c54:	9801      	ldr	r0, [sp, #4]
 8000c56:	460a      	mov	r2, r1
 8000c58:	9202      	str	r2, [sp, #8]
 8000c5a:	f807 1c01 	strb.w	r1, [r7, #-1]
 8000c5e:	f7ff ffd7 	bl	8000c10 <_ZN8cortex_m8register7primask7Primask9is_active17h708e7b2e6e64f3dbE>
 8000c62:	b928      	cbnz	r0, 8000c70 <_ZN8cortex_m9interrupt4free17haa93005c6975f626E+0x44>
 8000c64:	e7ff      	b.n	8000c66 <_ZN8cortex_m9interrupt4free17haa93005c6975f626E+0x3a>
 8000c66:	9802      	ldr	r0, [sp, #8]
 8000c68:	f000 0001 	and.w	r0, r0, #1
 8000c6c:	b006      	add	sp, #24
 8000c6e:	bd80      	pop	{r7, pc}
 8000c70:	f000 f801 	bl	8000c76 <_ZN8cortex_m9interrupt6enable17h4566afde5e4baea1E>
 8000c74:	e7f7      	b.n	8000c66 <_ZN8cortex_m9interrupt4free17haa93005c6975f626E+0x3a>

08000c76 <_ZN8cortex_m9interrupt6enable17h4566afde5e4baea1E>:
 8000c76:	b580      	push	{r7, lr}
 8000c78:	466f      	mov	r7, sp
 8000c7a:	f001 ff6e 	bl	8002b5a <__cpsie>
 8000c7e:	bd80      	pop	{r7, pc}

08000c80 <_ZN8cortex_m9interrupt7disable17h0aa1e2ab9b2a75c8E>:
 8000c80:	b580      	push	{r7, lr}
 8000c82:	466f      	mov	r7, sp
 8000c84:	f001 ff67 	bl	8002b56 <__cpsid>
 8000c88:	bd80      	pop	{r7, pc}

08000c8a <_ZN20cortex_m_semihosting6export11hstdout_str17hf4e1cb40319dee4eE>:
 8000c8a:	b580      	push	{r7, lr}
 8000c8c:	466f      	mov	r7, sp
 8000c8e:	b082      	sub	sp, #8
 8000c90:	9000      	str	r0, [sp, #0]
 8000c92:	9101      	str	r1, [sp, #4]
 8000c94:	4668      	mov	r0, sp
 8000c96:	f7ff ffc9 	bl	8000c2c <_ZN8cortex_m9interrupt4free17haa93005c6975f626E>
 8000c9a:	b002      	add	sp, #8
 8000c9c:	bd80      	pop	{r7, pc}

08000c9e <_ZN20cortex_m_semihosting6export11hstdout_str28_$u7b$$u7b$closure$u7d$$u7d$17h43e5960e8a275ac8E>:
 8000c9e:	b580      	push	{r7, lr}
 8000ca0:	466f      	mov	r7, sp
 8000ca2:	b08c      	sub	sp, #48	; 0x30
 8000ca4:	9002      	str	r0, [sp, #8]
 8000ca6:	9108      	str	r1, [sp, #32]
 8000ca8:	f240 0000 	movw	r0, #0
 8000cac:	f2c2 0000 	movt	r0, #8192	; 0x2000
 8000cb0:	f7ff ff12 	bl	8000ad8 <_ZN4core6option15Option$LT$T$GT$7is_none17h43c00467442b9ec2E>
 8000cb4:	b9e0      	cbnz	r0, 8000cf0 <_ZN20cortex_m_semihosting6export11hstdout_str28_$u7b$$u7b$closure$u7d$$u7d$17h43e5960e8a275ac8E+0x52>
 8000cb6:	e7ff      	b.n	8000cb8 <_ZN20cortex_m_semihosting6export11hstdout_str28_$u7b$$u7b$closure$u7d$$u7d$17h43e5960e8a275ac8E+0x1a>
 8000cb8:	f240 0000 	movw	r0, #0
 8000cbc:	f2c2 0000 	movt	r0, #8192	; 0x2000
 8000cc0:	f7ff fef9 	bl	8000ab6 <_ZN4core6option15Option$LT$T$GT$6as_mut17h9261f1a2ea10e6d9E>
 8000cc4:	900a      	str	r0, [sp, #40]	; 0x28
 8000cc6:	980a      	ldr	r0, [sp, #40]	; 0x28
 8000cc8:	b930      	cbnz	r0, 8000cd8 <_ZN20cortex_m_semihosting6export11hstdout_str28_$u7b$$u7b$closure$u7d$$u7d$17h43e5960e8a275ac8E+0x3a>
 8000cca:	e7ff      	b.n	8000ccc <_ZN20cortex_m_semihosting6export11hstdout_str28_$u7b$$u7b$closure$u7d$$u7d$17h43e5960e8a275ac8E+0x2e>
 8000ccc:	f643 5018 	movw	r0, #15640	; 0x3d18
 8000cd0:	f6c0 0000 	movt	r0, #2048	; 0x800
 8000cd4:	f001 ff89 	bl	8002bea <_ZN4core6option13unwrap_failed17h8d194fb1406a9394E>
 8000cd8:	980a      	ldr	r0, [sp, #40]	; 0x28
 8000cda:	900b      	str	r0, [sp, #44]	; 0x2c
 8000cdc:	9a02      	ldr	r2, [sp, #8]
 8000cde:	6811      	ldr	r1, [r2, #0]
 8000ce0:	6852      	ldr	r2, [r2, #4]
 8000ce2:	f000 f836 	bl	8000d52 <_ZN71_$LT$cortex_m_semihosting..hio..HStdout$u20$as$u20$core..fmt..Write$GT$9write_str17h6fabc1e5bf478f09E>
 8000ce6:	f7ff ff3c 	bl	8000b62 <_ZN4core6result19Result$LT$T$C$E$GT$7map_err17hf73b916e9e6d2628E>
 8000cea:	f807 0c21 	strb.w	r0, [r7, #-33]
 8000cee:	e01f      	b.n	8000d30 <_ZN20cortex_m_semihosting6export11hstdout_str28_$u7b$$u7b$closure$u7d$$u7d$17h43e5960e8a275ac8E+0x92>
 8000cf0:	f000 f840 	bl	8000d74 <_ZN20cortex_m_semihosting3hio7hstdout17h1dcddfcc06aa3e09E>
 8000cf4:	f7ff ff60 	bl	8000bb8 <_ZN79_$LT$core..result..Result$LT$T$C$E$GT$$u20$as$u20$core..ops..try_trait..Try$GT$6branch17hed6eeec723e17e7aE>
 8000cf8:	9006      	str	r0, [sp, #24]
 8000cfa:	9107      	str	r1, [sp, #28]
 8000cfc:	9806      	ldr	r0, [sp, #24]
 8000cfe:	b970      	cbnz	r0, 8000d1e <_ZN20cortex_m_semihosting6export11hstdout_str28_$u7b$$u7b$closure$u7d$$u7d$17h43e5960e8a275ac8E+0x80>
 8000d00:	e7ff      	b.n	8000d02 <_ZN20cortex_m_semihosting6export11hstdout_str28_$u7b$$u7b$closure$u7d$$u7d$17h43e5960e8a275ac8E+0x64>
 8000d02:	9807      	ldr	r0, [sp, #28]
 8000d04:	9009      	str	r0, [sp, #36]	; 0x24
 8000d06:	9005      	str	r0, [sp, #20]
 8000d08:	2001      	movs	r0, #1
 8000d0a:	9004      	str	r0, [sp, #16]
 8000d0c:	9a04      	ldr	r2, [sp, #16]
 8000d0e:	9805      	ldr	r0, [sp, #20]
 8000d10:	f240 0100 	movw	r1, #0
 8000d14:	f2c2 0100 	movt	r1, #8192	; 0x2000
 8000d18:	600a      	str	r2, [r1, #0]
 8000d1a:	6048      	str	r0, [r1, #4]
 8000d1c:	e7cc      	b.n	8000cb8 <_ZN20cortex_m_semihosting6export11hstdout_str28_$u7b$$u7b$closure$u7d$$u7d$17h43e5960e8a275ac8E+0x1a>
 8000d1e:	f643 5028 	movw	r0, #15656	; 0x3d28
 8000d22:	f6c0 0000 	movt	r0, #2048	; 0x800
 8000d26:	f7ff feaa 	bl	8000a7e <_ZN153_$LT$core..result..Result$LT$T$C$F$GT$$u20$as$u20$core..ops..try_trait..FromResidual$LT$core..result..Result$LT$core..convert..Infallible$C$E$GT$$GT$$GT$13from_residual17hdae77eedbb55e9a7E>
 8000d2a:	f807 0c21 	strb.w	r0, [r7, #-33]
 8000d2e:	e7ff      	b.n	8000d30 <_ZN20cortex_m_semihosting6export11hstdout_str28_$u7b$$u7b$closure$u7d$$u7d$17h43e5960e8a275ac8E+0x92>
 8000d30:	f817 0c21 	ldrb.w	r0, [r7, #-33]
 8000d34:	f000 0001 	and.w	r0, r0, #1
 8000d38:	b00c      	add	sp, #48	; 0x30
 8000d3a:	bd80      	pop	{r7, pc}

08000d3c <_ZN20cortex_m_semihosting3hio7HStdout9write_all17hfa83d0b61ef54652E>:
 8000d3c:	b580      	push	{r7, lr}
 8000d3e:	466f      	mov	r7, sp
 8000d40:	b084      	sub	sp, #16
 8000d42:	9001      	str	r0, [sp, #4]
 8000d44:	9102      	str	r1, [sp, #8]
 8000d46:	9203      	str	r2, [sp, #12]
 8000d48:	6800      	ldr	r0, [r0, #0]
 8000d4a:	f000 f85c 	bl	8000e06 <_ZN20cortex_m_semihosting3hio9write_all17h6bc61c10c4967217E>
 8000d4e:	b004      	add	sp, #16
 8000d50:	bd80      	pop	{r7, pc}

08000d52 <_ZN71_$LT$cortex_m_semihosting..hio..HStdout$u20$as$u20$core..fmt..Write$GT$9write_str17h6fabc1e5bf478f09E>:
 8000d52:	b580      	push	{r7, lr}
 8000d54:	466f      	mov	r7, sp
 8000d56:	b086      	sub	sp, #24
 8000d58:	9001      	str	r0, [sp, #4]
 8000d5a:	9102      	str	r1, [sp, #8]
 8000d5c:	9203      	str	r2, [sp, #12]
 8000d5e:	9104      	str	r1, [sp, #16]
 8000d60:	9205      	str	r2, [sp, #20]
 8000d62:	f7ff ffeb 	bl	8000d3c <_ZN20cortex_m_semihosting3hio7HStdout9write_all17hfa83d0b61ef54652E>
 8000d66:	f7ff fee2 	bl	8000b2e <_ZN4core6result19Result$LT$T$C$E$GT$7map_err17h6d270186e6c1501dE>
 8000d6a:	b006      	add	sp, #24
 8000d6c:	bd80      	pop	{r7, pc}

08000d6e <_ZN71_$LT$cortex_m_semihosting..hio..HStdout$u20$as$u20$core..fmt..Write$GT$9write_str28_$u7b$$u7b$closure$u7d$$u7d$17hf5ad85fd9b98ad74E>:
 8000d6e:	b081      	sub	sp, #4
 8000d70:	b001      	add	sp, #4
 8000d72:	4770      	bx	lr

08000d74 <_ZN20cortex_m_semihosting3hio7hstdout17h1dcddfcc06aa3e09E>:
 8000d74:	b580      	push	{r7, lr}
 8000d76:	466f      	mov	r7, sp
 8000d78:	f643 204c 	movw	r0, #14924	; 0x3a4c
 8000d7c:	f6c0 0000 	movt	r0, #2048	; 0x800
 8000d80:	2204      	movs	r2, #4
 8000d82:	4611      	mov	r1, r2
 8000d84:	f000 f807 	bl	8000d96 <_ZN20cortex_m_semihosting3hio4open17h8b59bc662b63fef3E>
 8000d88:	f7ff feba 	bl	8000b00 <_ZN4core6result19Result$LT$T$C$E$GT$3map17h840b3ce1e93df5dfE>
 8000d8c:	bd80      	pop	{r7, pc}

08000d8e <_ZN20cortex_m_semihosting3hio7hstdout28_$u7b$$u7b$closure$u7d$$u7d$17h8daec727f5f6d06cE>:
 8000d8e:	b082      	sub	sp, #8
 8000d90:	9001      	str	r0, [sp, #4]
 8000d92:	b002      	add	sp, #8
 8000d94:	4770      	bx	lr

08000d96 <_ZN20cortex_m_semihosting3hio4open17h8b59bc662b63fef3E>:
 8000d96:	b580      	push	{r7, lr}
 8000d98:	466f      	mov	r7, sp
 8000d9a:	b098      	sub	sp, #96	; 0x60
 8000d9c:	9202      	str	r2, [sp, #8]
 8000d9e:	900a      	str	r0, [sp, #40]	; 0x28
 8000da0:	910b      	str	r1, [sp, #44]	; 0x2c
 8000da2:	920c      	str	r2, [sp, #48]	; 0x30
 8000da4:	9010      	str	r0, [sp, #64]	; 0x40
 8000da6:	9111      	str	r1, [sp, #68]	; 0x44
 8000da8:	900d      	str	r0, [sp, #52]	; 0x34
 8000daa:	910e      	str	r1, [sp, #56]	; 0x38
 8000dac:	9012      	str	r0, [sp, #72]	; 0x48
 8000dae:	9113      	str	r1, [sp, #76]	; 0x4c
 8000db0:	9003      	str	r0, [sp, #12]
 8000db2:	1e48      	subs	r0, r1, #1
 8000db4:	9004      	str	r0, [sp, #16]
 8000db6:	b1a1      	cbz	r1, 8000de2 <_ZN20cortex_m_semihosting3hio4open17h8b59bc662b63fef3E+0x4c>
 8000db8:	e7ff      	b.n	8000dba <_ZN20cortex_m_semihosting3hio4open17h8b59bc662b63fef3E+0x24>
 8000dba:	9804      	ldr	r0, [sp, #16]
 8000dbc:	9902      	ldr	r1, [sp, #8]
 8000dbe:	9a03      	ldr	r2, [sp, #12]
 8000dc0:	9207      	str	r2, [sp, #28]
 8000dc2:	9108      	str	r1, [sp, #32]
 8000dc4:	9009      	str	r0, [sp, #36]	; 0x24
 8000dc6:	2001      	movs	r0, #1
 8000dc8:	9014      	str	r0, [sp, #80]	; 0x50
 8000dca:	a907      	add	r1, sp, #28
 8000dcc:	9115      	str	r1, [sp, #84]	; 0x54
 8000dce:	9016      	str	r0, [sp, #88]	; 0x58
 8000dd0:	9117      	str	r1, [sp, #92]	; 0x5c
 8000dd2:	f000 f870 	bl	8000eb6 <__c_m_sh_syscall>
 8000dd6:	4601      	mov	r1, r0
 8000dd8:	9101      	str	r1, [sp, #4]
 8000dda:	900f      	str	r0, [sp, #60]	; 0x3c
 8000ddc:	3001      	adds	r0, #1
 8000dde:	b130      	cbz	r0, 8000dee <_ZN20cortex_m_semihosting3hio4open17h8b59bc662b63fef3E+0x58>
 8000de0:	e008      	b.n	8000df4 <_ZN20cortex_m_semihosting3hio4open17h8b59bc662b63fef3E+0x5e>
 8000de2:	f643 509c 	movw	r0, #15772	; 0x3d9c
 8000de6:	f6c0 0000 	movt	r0, #2048	; 0x800
 8000dea:	f002 fc96 	bl	800371a <_ZN4core9panicking11panic_const24panic_const_sub_overflow17hda0baad704454db2E>
 8000dee:	2001      	movs	r0, #1
 8000df0:	9005      	str	r0, [sp, #20]
 8000df2:	e004      	b.n	8000dfe <_ZN20cortex_m_semihosting3hio4open17h8b59bc662b63fef3E+0x68>
 8000df4:	9801      	ldr	r0, [sp, #4]
 8000df6:	9006      	str	r0, [sp, #24]
 8000df8:	2000      	movs	r0, #0
 8000dfa:	9005      	str	r0, [sp, #20]
 8000dfc:	e7ff      	b.n	8000dfe <_ZN20cortex_m_semihosting3hio4open17h8b59bc662b63fef3E+0x68>
 8000dfe:	9805      	ldr	r0, [sp, #20]
 8000e00:	9906      	ldr	r1, [sp, #24]
 8000e02:	b018      	add	sp, #96	; 0x60
 8000e04:	bd80      	pop	{r7, pc}

08000e06 <_ZN20cortex_m_semihosting3hio9write_all17h6bc61c10c4967217E>:
 8000e06:	b580      	push	{r7, lr}
 8000e08:	466f      	mov	r7, sp
 8000e0a:	b096      	sub	sp, #88	; 0x58
 8000e0c:	9001      	str	r0, [sp, #4]
 8000e0e:	9102      	str	r1, [sp, #8]
 8000e10:	9203      	str	r2, [sp, #12]
 8000e12:	9009      	str	r0, [sp, #36]	; 0x24
 8000e14:	e7ff      	b.n	8000e16 <_ZN20cortex_m_semihosting3hio9write_all17h6bc61c10c4967217E+0x10>
 8000e16:	9802      	ldr	r0, [sp, #8]
 8000e18:	9903      	ldr	r1, [sp, #12]
 8000e1a:	f7ff fe44 	bl	8000aa6 <_ZN4core5slice29_$LT$impl$u20$$u5b$T$u5d$$GT$8is_empty17h93791ba6a342527eE>
 8000e1e:	b9a8      	cbnz	r0, 8000e4c <_ZN20cortex_m_semihosting3hio9write_all17h6bc61c10c4967217E+0x46>
 8000e20:	e7ff      	b.n	8000e22 <_ZN20cortex_m_semihosting3hio9write_all17h6bc61c10c4967217E+0x1c>
 8000e22:	9a01      	ldr	r2, [sp, #4]
 8000e24:	9902      	ldr	r1, [sp, #8]
 8000e26:	9803      	ldr	r0, [sp, #12]
 8000e28:	9110      	str	r1, [sp, #64]	; 0x40
 8000e2a:	9011      	str	r0, [sp, #68]	; 0x44
 8000e2c:	9803      	ldr	r0, [sp, #12]
 8000e2e:	9206      	str	r2, [sp, #24]
 8000e30:	9107      	str	r1, [sp, #28]
 8000e32:	9008      	str	r0, [sp, #32]
 8000e34:	2005      	movs	r0, #5
 8000e36:	9012      	str	r0, [sp, #72]	; 0x48
 8000e38:	a906      	add	r1, sp, #24
 8000e3a:	9113      	str	r1, [sp, #76]	; 0x4c
 8000e3c:	9014      	str	r0, [sp, #80]	; 0x50
 8000e3e:	9115      	str	r1, [sp, #84]	; 0x54
 8000e40:	f000 f839 	bl	8000eb6 <__c_m_sh_syscall>
 8000e44:	9005      	str	r0, [sp, #20]
 8000e46:	9805      	ldr	r0, [sp, #20]
 8000e48:	b120      	cbz	r0, 8000e54 <_ZN20cortex_m_semihosting3hio9write_all17h6bc61c10c4967217E+0x4e>
 8000e4a:	e007      	b.n	8000e5c <_ZN20cortex_m_semihosting3hio9write_all17h6bc61c10c4967217E+0x56>
 8000e4c:	2000      	movs	r0, #0
 8000e4e:	f807 0c45 	strb.w	r0, [r7, #-69]
 8000e52:	e00a      	b.n	8000e6a <_ZN20cortex_m_semihosting3hio9write_all17h6bc61c10c4967217E+0x64>
 8000e54:	2000      	movs	r0, #0
 8000e56:	f807 0c45 	strb.w	r0, [r7, #-69]
 8000e5a:	e006      	b.n	8000e6a <_ZN20cortex_m_semihosting3hio9write_all17h6bc61c10c4967217E+0x64>
 8000e5c:	a805      	add	r0, sp, #20
 8000e5e:	900a      	str	r0, [sp, #40]	; 0x28
 8000e60:	9805      	ldr	r0, [sp, #20]
 8000e62:	9903      	ldr	r1, [sp, #12]
 8000e64:	4288      	cmp	r0, r1
 8000e66:	d90a      	bls.n	8000e7e <_ZN20cortex_m_semihosting3hio9write_all17h6bc61c10c4967217E+0x78>
 8000e68:	e005      	b.n	8000e76 <_ZN20cortex_m_semihosting3hio9write_all17h6bc61c10c4967217E+0x70>
 8000e6a:	f817 0c45 	ldrb.w	r0, [r7, #-69]
 8000e6e:	f000 0001 	and.w	r0, r0, #1
 8000e72:	b016      	add	sp, #88	; 0x58
 8000e74:	bd80      	pop	{r7, pc}
 8000e76:	2001      	movs	r0, #1
 8000e78:	f807 0c45 	strb.w	r0, [r7, #-69]
 8000e7c:	e7f5      	b.n	8000e6a <_ZN20cortex_m_semihosting3hio9write_all17h6bc61c10c4967217E+0x64>
 8000e7e:	9803      	ldr	r0, [sp, #12]
 8000e80:	9905      	ldr	r1, [sp, #20]
 8000e82:	1a42      	subs	r2, r0, r1
 8000e84:	9200      	str	r2, [sp, #0]
 8000e86:	4288      	cmp	r0, r1
 8000e88:	d30f      	bcc.n	8000eaa <_ZN20cortex_m_semihosting3hio9write_all17h6bc61c10c4967217E+0xa4>
 8000e8a:	e7ff      	b.n	8000e8c <_ZN20cortex_m_semihosting3hio9write_all17h6bc61c10c4967217E+0x86>
 8000e8c:	9900      	ldr	r1, [sp, #0]
 8000e8e:	910b      	str	r1, [sp, #44]	; 0x2c
 8000e90:	9802      	ldr	r0, [sp, #8]
 8000e92:	9a03      	ldr	r2, [sp, #12]
 8000e94:	900e      	str	r0, [sp, #56]	; 0x38
 8000e96:	920f      	str	r2, [sp, #60]	; 0x3c
 8000e98:	900c      	str	r0, [sp, #48]	; 0x30
 8000e9a:	910d      	str	r1, [sp, #52]	; 0x34
 8000e9c:	4408      	add	r0, r1
 8000e9e:	9905      	ldr	r1, [sp, #20]
 8000ea0:	f001 fdc9 	bl	8002a36 <_ZN4core5slice3raw14from_raw_parts17hb3784d421b7b4debE>
 8000ea4:	9002      	str	r0, [sp, #8]
 8000ea6:	9103      	str	r1, [sp, #12]
 8000ea8:	e7b5      	b.n	8000e16 <_ZN20cortex_m_semihosting3hio9write_all17h6bc61c10c4967217E+0x10>
 8000eaa:	f643 50ac 	movw	r0, #15788	; 0x3dac
 8000eae:	f6c0 0000 	movt	r0, #2048	; 0x800
 8000eb2:	f002 fc32 	bl	800371a <_ZN4core9panicking11panic_const24panic_const_sub_overflow17hda0baad704454db2E>

08000eb6 <__c_m_sh_syscall>:
 8000eb6:	beab      	bkpt	0x00ab
 8000eb8:	4770      	bx	lr

08000eba <_ZN16stm32f3xx_hal_v25timer37Timer$LT$stm32f3..stm32f303..TIM2$GT$6listen17h289d62fd4285dd5aE>:
 8000eba:	b580      	push	{r7, lr}
 8000ebc:	466f      	mov	r7, sp
 8000ebe:	b08a      	sub	sp, #40	; 0x28
 8000ec0:	9002      	str	r0, [sp, #8]
 8000ec2:	3014      	adds	r0, #20
 8000ec4:	9004      	str	r0, [sp, #16]
 8000ec6:	200c      	movs	r0, #12
 8000ec8:	f2c4 0000 	movt	r0, #16384	; 0x4000
 8000ecc:	9000      	str	r0, [sp, #0]
 8000ece:	9006      	str	r0, [sp, #24]
 8000ed0:	2000      	movs	r0, #0
 8000ed2:	9005      	str	r0, [sp, #20]
 8000ed4:	a805      	add	r0, sp, #20
 8000ed6:	f000 f80a 	bl	8000eee <_ZN16stm32f3xx_hal_v25timer37Timer$LT$stm32f3..stm32f303..TIM2$GT$6listen28_$u7b$$u7b$closure$u7d$$u7d$17hfc8e5bb4e0a7ae9aE>
 8000eda:	4601      	mov	r1, r0
 8000edc:	9800      	ldr	r0, [sp, #0]
 8000ede:	6809      	ldr	r1, [r1, #0]
 8000ee0:	9007      	str	r0, [sp, #28]
 8000ee2:	9108      	str	r1, [sp, #32]
 8000ee4:	9009      	str	r0, [sp, #36]	; 0x24
 8000ee6:	f001 fd3f 	bl	8002968 <_ZN4core3ptr14write_volatile17ha91faba4b6935fe1E>
 8000eea:	b00a      	add	sp, #40	; 0x28
 8000eec:	bd80      	pop	{r7, pc}

08000eee <_ZN16stm32f3xx_hal_v25timer37Timer$LT$stm32f3..stm32f303..TIM2$GT$6listen28_$u7b$$u7b$closure$u7d$$u7d$17hfc8e5bb4e0a7ae9aE>:
 8000eee:	b580      	push	{r7, lr}
 8000ef0:	466f      	mov	r7, sp
 8000ef2:	b08a      	sub	sp, #40	; 0x28
 8000ef4:	4601      	mov	r1, r0
 8000ef6:	9100      	str	r1, [sp, #0]
 8000ef8:	9102      	str	r1, [sp, #8]
 8000efa:	9103      	str	r1, [sp, #12]
 8000efc:	9105      	str	r1, [sp, #20]
 8000efe:	2001      	movs	r0, #1
 8000f00:	f807 0c15 	strb.w	r0, [r7, #-21]
 8000f04:	f817 0c15 	ldrb.w	r0, [r7, #-21]
 8000f08:	9106      	str	r1, [sp, #24]
 8000f0a:	f000 0001 	and.w	r0, r0, #1
 8000f0e:	f807 0c09 	strb.w	r0, [r7, #-9]
 8000f12:	f643 7114 	movw	r1, #16148	; 0x3f14
 8000f16:	f6c0 0100 	movt	r1, #2048	; 0x800
 8000f1a:	f001 fb2a 	bl	8002572 <_ZN50_$LT$T$u20$as$u20$core..convert..Into$LT$U$GT$$GT$4into17h0b5e878d35128e08E>
 8000f1e:	4602      	mov	r2, r0
 8000f20:	9800      	ldr	r0, [sp, #0]
 8000f22:	9008      	str	r0, [sp, #32]
 8000f24:	f807 2c01 	strb.w	r2, [r7, #-1]
 8000f28:	9908      	ldr	r1, [sp, #32]
 8000f2a:	6808      	ldr	r0, [r1, #0]
 8000f2c:	f020 0001 	bic.w	r0, r0, #1
 8000f30:	4410      	add	r0, r2
 8000f32:	6008      	str	r0, [r1, #0]
 8000f34:	9808      	ldr	r0, [sp, #32]
 8000f36:	b00a      	add	sp, #40	; 0x28
 8000f38:	bd80      	pop	{r7, pc}

08000f3a <_ZN16stm32f3xx_hal_v25timer37Timer$LT$stm32f3..stm32f303..TIM2$GT$4stop17h50670098e4a9831aE>:
 8000f3a:	b580      	push	{r7, lr}
 8000f3c:	466f      	mov	r7, sp
 8000f3e:	b08c      	sub	sp, #48	; 0x30
 8000f40:	9001      	str	r0, [sp, #4]
 8000f42:	3014      	adds	r0, #20
 8000f44:	9002      	str	r0, [sp, #8]
 8000f46:	f04f 4080 	mov.w	r0, #1073741824	; 0x40000000
 8000f4a:	9000      	str	r0, [sp, #0]
 8000f4c:	9005      	str	r0, [sp, #20]
 8000f4e:	9007      	str	r0, [sp, #28]
 8000f50:	9008      	str	r0, [sp, #32]
 8000f52:	f001 fca4 	bl	800289e <_ZN4core3ptr13read_volatile17h6d6580fa05e6f41aE>
 8000f56:	9006      	str	r0, [sp, #24]
 8000f58:	9003      	str	r0, [sp, #12]
 8000f5a:	9004      	str	r0, [sp, #16]
 8000f5c:	a803      	add	r0, sp, #12
 8000f5e:	a904      	add	r1, sp, #16
 8000f60:	f000 f80a 	bl	8000f78 <_ZN16stm32f3xx_hal_v25timer37Timer$LT$stm32f3..stm32f303..TIM2$GT$4stop28_$u7b$$u7b$closure$u7d$$u7d$17h9c918ca35de67d04E>
 8000f64:	4601      	mov	r1, r0
 8000f66:	9800      	ldr	r0, [sp, #0]
 8000f68:	6809      	ldr	r1, [r1, #0]
 8000f6a:	9009      	str	r0, [sp, #36]	; 0x24
 8000f6c:	910a      	str	r1, [sp, #40]	; 0x28
 8000f6e:	900b      	str	r0, [sp, #44]	; 0x2c
 8000f70:	f001 fcfa 	bl	8002968 <_ZN4core3ptr14write_volatile17ha91faba4b6935fe1E>
 8000f74:	b00c      	add	sp, #48	; 0x30
 8000f76:	bd80      	pop	{r7, pc}

08000f78 <_ZN16stm32f3xx_hal_v25timer37Timer$LT$stm32f3..stm32f303..TIM2$GT$4stop28_$u7b$$u7b$closure$u7d$$u7d$17h9c918ca35de67d04E>:
 8000f78:	b580      	push	{r7, lr}
 8000f7a:	466f      	mov	r7, sp
 8000f7c:	b08c      	sub	sp, #48	; 0x30
 8000f7e:	9101      	str	r1, [sp, #4]
 8000f80:	9003      	str	r0, [sp, #12]
 8000f82:	9104      	str	r1, [sp, #16]
 8000f84:	9105      	str	r1, [sp, #20]
 8000f86:	9107      	str	r1, [sp, #28]
 8000f88:	2000      	movs	r0, #0
 8000f8a:	f807 0c15 	strb.w	r0, [r7, #-21]
 8000f8e:	f817 0c15 	ldrb.w	r0, [r7, #-21]
 8000f92:	9108      	str	r1, [sp, #32]
 8000f94:	f000 0001 	and.w	r0, r0, #1
 8000f98:	f807 0c09 	strb.w	r0, [r7, #-9]
 8000f9c:	f643 619c 	movw	r1, #16028	; 0x3e9c
 8000fa0:	f6c0 0100 	movt	r1, #2048	; 0x800
 8000fa4:	f000 f966 	bl	8001274 <_ZN50_$LT$T$u20$as$u20$core..convert..Into$LT$U$GT$$GT$4into17hca3807e3b612d347E>
 8000fa8:	9901      	ldr	r1, [sp, #4]
 8000faa:	4602      	mov	r2, r0
 8000fac:	910a      	str	r1, [sp, #40]	; 0x28
 8000fae:	f807 2c01 	strb.w	r2, [r7, #-1]
 8000fb2:	990a      	ldr	r1, [sp, #40]	; 0x28
 8000fb4:	6808      	ldr	r0, [r1, #0]
 8000fb6:	f020 0001 	bic.w	r0, r0, #1
 8000fba:	4410      	add	r0, r2
 8000fbc:	6008      	str	r0, [r1, #0]
 8000fbe:	980a      	ldr	r0, [sp, #40]	; 0x28
 8000fc0:	b00c      	add	sp, #48	; 0x30
 8000fc2:	bd80      	pop	{r7, pc}

08000fc4 <_ZN16stm32f3xx_hal_v25timer37Timer$LT$stm32f3..stm32f303..TIM2$GT$27clear_update_interrupt_flag17h568697108e362fffE>:
 8000fc4:	b580      	push	{r7, lr}
 8000fc6:	466f      	mov	r7, sp
 8000fc8:	b08c      	sub	sp, #48	; 0x30
 8000fca:	9001      	str	r0, [sp, #4]
 8000fcc:	3014      	adds	r0, #20
 8000fce:	9002      	str	r0, [sp, #8]
 8000fd0:	2010      	movs	r0, #16
 8000fd2:	f2c4 0000 	movt	r0, #16384	; 0x4000
 8000fd6:	9000      	str	r0, [sp, #0]
 8000fd8:	9005      	str	r0, [sp, #20]
 8000fda:	9007      	str	r0, [sp, #28]
 8000fdc:	9008      	str	r0, [sp, #32]
 8000fde:	f001 fc5e 	bl	800289e <_ZN4core3ptr13read_volatile17h6d6580fa05e6f41aE>
 8000fe2:	9006      	str	r0, [sp, #24]
 8000fe4:	9003      	str	r0, [sp, #12]
 8000fe6:	9004      	str	r0, [sp, #16]
 8000fe8:	a803      	add	r0, sp, #12
 8000fea:	a904      	add	r1, sp, #16
 8000fec:	f000 f80a 	bl	8001004 <_ZN16stm32f3xx_hal_v25timer37Timer$LT$stm32f3..stm32f303..TIM2$GT$27clear_update_interrupt_flag28_$u7b$$u7b$closure$u7d$$u7d$17he08345b59427a98dE>
 8000ff0:	4601      	mov	r1, r0
 8000ff2:	9800      	ldr	r0, [sp, #0]
 8000ff4:	6809      	ldr	r1, [r1, #0]
 8000ff6:	9009      	str	r0, [sp, #36]	; 0x24
 8000ff8:	910a      	str	r1, [sp, #40]	; 0x28
 8000ffa:	900b      	str	r0, [sp, #44]	; 0x2c
 8000ffc:	f001 fcb4 	bl	8002968 <_ZN4core3ptr14write_volatile17ha91faba4b6935fe1E>
 8001000:	b00c      	add	sp, #48	; 0x30
 8001002:	bd80      	pop	{r7, pc}

08001004 <_ZN16stm32f3xx_hal_v25timer37Timer$LT$stm32f3..stm32f303..TIM2$GT$27clear_update_interrupt_flag28_$u7b$$u7b$closure$u7d$$u7d$17he08345b59427a98dE>:
 8001004:	b580      	push	{r7, lr}
 8001006:	466f      	mov	r7, sp
 8001008:	b08c      	sub	sp, #48	; 0x30
 800100a:	9101      	str	r1, [sp, #4]
 800100c:	9003      	str	r0, [sp, #12]
 800100e:	9104      	str	r1, [sp, #16]
 8001010:	9105      	str	r1, [sp, #20]
 8001012:	9107      	str	r1, [sp, #28]
 8001014:	2000      	movs	r0, #0
 8001016:	f807 0c15 	strb.w	r0, [r7, #-21]
 800101a:	f817 0c15 	ldrb.w	r0, [r7, #-21]
 800101e:	9108      	str	r1, [sp, #32]
 8001020:	f000 0001 	and.w	r0, r0, #1
 8001024:	f807 0c09 	strb.w	r0, [r7, #-9]
 8001028:	f643 6124 	movw	r1, #15908	; 0x3e24
 800102c:	f6c0 0100 	movt	r1, #2048	; 0x800
 8001030:	f000 f9d7 	bl	80013e2 <_ZN50_$LT$T$u20$as$u20$core..convert..Into$LT$U$GT$$GT$4into17ha83fb31ff1219e7fE>
 8001034:	9901      	ldr	r1, [sp, #4]
 8001036:	4602      	mov	r2, r0
 8001038:	910a      	str	r1, [sp, #40]	; 0x28
 800103a:	f807 2c01 	strb.w	r2, [r7, #-1]
 800103e:	990a      	ldr	r1, [sp, #40]	; 0x28
 8001040:	6808      	ldr	r0, [r1, #0]
 8001042:	f020 0001 	bic.w	r0, r0, #1
 8001046:	4410      	add	r0, r2
 8001048:	6008      	str	r0, [r1, #0]
 800104a:	980a      	ldr	r0, [sp, #40]	; 0x28
 800104c:	b00c      	add	sp, #48	; 0x30
 800104e:	bd80      	pop	{r7, pc}

08001050 <_ZN16stm32f3xx_hal_v23rcc12usb_clocking8is_valid17h719e3208fcc83206E>:
 8001050:	b580      	push	{r7, lr}
 8001052:	466f      	mov	r7, sp
 8001054:	b08a      	sub	sp, #40	; 0x28
 8001056:	9301      	str	r3, [sp, #4]
 8001058:	9002      	str	r0, [sp, #8]
 800105a:	f8d7 c008 	ldr.w	ip, [r7, #8]
 800105e:	f8cd c00c 	str.w	ip, [sp, #12]
 8001062:	9104      	str	r1, [sp, #16]
 8001064:	9205      	str	r2, [sp, #20]
 8001066:	9008      	str	r0, [sp, #32]
 8001068:	9309      	str	r3, [sp, #36]	; 0x24
 800106a:	a804      	add	r0, sp, #16
 800106c:	f001 fa8c 	bl	8002588 <_ZN4core6option15Option$LT$T$GT$7is_some17h2e457d7a010802c4E>
 8001070:	b920      	cbnz	r0, 800107c <_ZN16stm32f3xx_hal_v23rcc12usb_clocking8is_valid17h719e3208fcc83206E+0x2c>
 8001072:	e7ff      	b.n	8001074 <_ZN16stm32f3xx_hal_v23rcc12usb_clocking8is_valid17h719e3208fcc83206E+0x24>
 8001074:	2000      	movs	r0, #0
 8001076:	f807 0c0d 	strb.w	r0, [r7, #-13]
 800107a:	e005      	b.n	8001088 <_ZN16stm32f3xx_hal_v23rcc12usb_clocking8is_valid17h719e3208fcc83206E+0x38>
 800107c:	9803      	ldr	r0, [sp, #12]
 800107e:	f000 f99c 	bl	80013ba <_ZN4core6option15Option$LT$T$GT$7is_some17h708d80aaddbe0a37E>
 8001082:	f807 0c0d 	strb.w	r0, [r7, #-13]
 8001086:	e7ff      	b.n	8001088 <_ZN16stm32f3xx_hal_v23rcc12usb_clocking8is_valid17h719e3208fcc83206E+0x38>
 8001088:	9801      	ldr	r0, [sp, #4]
 800108a:	f249 617f 	movw	r1, #38527	; 0x967f
 800108e:	f2c0 0198 	movt	r1, #152	; 0x98
 8001092:	4288      	cmp	r0, r1
 8001094:	d80d      	bhi.n	80010b2 <_ZN16stm32f3xx_hal_v23rcc12usb_clocking8is_valid17h719e3208fcc83206E+0x62>
 8001096:	e7ff      	b.n	8001098 <_ZN16stm32f3xx_hal_v23rcc12usb_clocking8is_valid17h719e3208fcc83206E+0x48>
 8001098:	2001      	movs	r0, #1
 800109a:	f807 0c09 	strb.w	r0, [r7, #-9]
 800109e:	f817 0c09 	ldrb.w	r0, [r7, #-9]
 80010a2:	f000 0001 	and.w	r0, r0, #1
 80010a6:	f807 0c0f 	strb.w	r0, [r7, #-15]
 80010aa:	2000      	movs	r0, #0
 80010ac:	f807 0c0e 	strb.w	r0, [r7, #-14]
 80010b0:	e004      	b.n	80010bc <_ZN16stm32f3xx_hal_v23rcc12usb_clocking8is_valid17h719e3208fcc83206E+0x6c>
 80010b2:	f817 0c0d 	ldrb.w	r0, [r7, #-13]
 80010b6:	07c0      	lsls	r0, r0, #31
 80010b8:	b998      	cbnz	r0, 80010e2 <_ZN16stm32f3xx_hal_v23rcc12usb_clocking8is_valid17h719e3208fcc83206E+0x92>
 80010ba:	e005      	b.n	80010c8 <_ZN16stm32f3xx_hal_v23rcc12usb_clocking8is_valid17h719e3208fcc83206E+0x78>
 80010bc:	f817 0c0f 	ldrb.w	r0, [r7, #-15]
 80010c0:	f817 1c0e 	ldrb.w	r1, [r7, #-14]
 80010c4:	b00a      	add	sp, #40	; 0x28
 80010c6:	bd80      	pop	{r7, pc}
 80010c8:	2001      	movs	r0, #1
 80010ca:	f807 0c0a 	strb.w	r0, [r7, #-10]
 80010ce:	f817 0c0a 	ldrb.w	r0, [r7, #-10]
 80010d2:	f000 0001 	and.w	r0, r0, #1
 80010d6:	f807 0c0f 	strb.w	r0, [r7, #-15]
 80010da:	2000      	movs	r0, #0
 80010dc:	f807 0c0e 	strb.w	r0, [r7, #-14]
 80010e0:	e7ec      	b.n	80010bc <_ZN16stm32f3xx_hal_v23rcc12usb_clocking8is_valid17h719e3208fcc83206E+0x6c>
 80010e2:	9802      	ldr	r0, [sp, #8]
 80010e4:	f646 4100 	movw	r1, #27648	; 0x6c00
 80010e8:	f2c0 21dc 	movt	r1, #732	; 0x2dc
 80010ec:	4288      	cmp	r0, r1
 80010ee:	d015      	beq.n	800111c <_ZN16stm32f3xx_hal_v23rcc12usb_clocking8is_valid17h719e3208fcc83206E+0xcc>
 80010f0:	e7ff      	b.n	80010f2 <_ZN16stm32f3xx_hal_v23rcc12usb_clocking8is_valid17h719e3208fcc83206E+0xa2>
 80010f2:	9802      	ldr	r0, [sp, #8]
 80010f4:	f24a 2100 	movw	r1, #41472	; 0xa200
 80010f8:	f2c0 414a 	movt	r1, #1098	; 0x44a
 80010fc:	4288      	cmp	r0, r1
 80010fe:	d1e3      	bne.n	80010c8 <_ZN16stm32f3xx_hal_v23rcc12usb_clocking8is_valid17h719e3208fcc83206E+0x78>
 8001100:	e7ff      	b.n	8001102 <_ZN16stm32f3xx_hal_v23rcc12usb_clocking8is_valid17h719e3208fcc83206E+0xb2>
 8001102:	2000      	movs	r0, #0
 8001104:	f88d 001c 	strb.w	r0, [sp, #28]
 8001108:	f89d 001c 	ldrb.w	r0, [sp, #28]
 800110c:	f000 0001 	and.w	r0, r0, #1
 8001110:	f807 0c0f 	strb.w	r0, [r7, #-15]
 8001114:	2001      	movs	r0, #1
 8001116:	f807 0c0e 	strb.w	r0, [r7, #-14]
 800111a:	e7cf      	b.n	80010bc <_ZN16stm32f3xx_hal_v23rcc12usb_clocking8is_valid17h719e3208fcc83206E+0x6c>
 800111c:	2001      	movs	r0, #1
 800111e:	f807 0c0b 	strb.w	r0, [r7, #-11]
 8001122:	f817 1c0b 	ldrb.w	r1, [r7, #-11]
 8001126:	f001 0101 	and.w	r1, r1, #1
 800112a:	f807 1c0f 	strb.w	r1, [r7, #-15]
 800112e:	f807 0c0e 	strb.w	r0, [r7, #-14]
 8001132:	e7c3      	b.n	80010bc <_ZN16stm32f3xx_hal_v23rcc12usb_clocking8is_valid17h719e3208fcc83206E+0x6c>

08001134 <_ZN16stm32f3xx_hal_v23rcc12usb_clocking10set_usbpre17hadc74204d84e6078E>:
 8001134:	b580      	push	{r7, lr}
 8001136:	466f      	mov	r7, sp
 8001138:	b08a      	sub	sp, #40	; 0x28
 800113a:	9101      	str	r1, [sp, #4]
 800113c:	4601      	mov	r1, r0
 800113e:	9801      	ldr	r0, [sp, #4]
 8001140:	9102      	str	r1, [sp, #8]
 8001142:	9103      	str	r1, [sp, #12]
 8001144:	f807 0c15 	strb.w	r0, [r7, #-21]
 8001148:	9105      	str	r1, [sp, #20]
 800114a:	9106      	str	r1, [sp, #24]
 800114c:	f807 0c09 	strb.w	r0, [r7, #-9]
 8001150:	f643 718c 	movw	r1, #16268	; 0x3f8c
 8001154:	f6c0 0100 	movt	r1, #2048	; 0x800
 8001158:	f000 f858 	bl	800120c <_ZN50_$LT$T$u20$as$u20$core..convert..Into$LT$U$GT$$GT$4into17hae30d7fd911b2489E>
 800115c:	4602      	mov	r2, r0
 800115e:	9802      	ldr	r0, [sp, #8]
 8001160:	9008      	str	r0, [sp, #32]
 8001162:	f807 2c01 	strb.w	r2, [r7, #-1]
 8001166:	9908      	ldr	r1, [sp, #32]
 8001168:	6808      	ldr	r0, [r1, #0]
 800116a:	f420 0080 	bic.w	r0, r0, #4194304	; 0x400000
 800116e:	ea40 5082 	orr.w	r0, r0, r2, lsl #22
 8001172:	6008      	str	r0, [r1, #0]
 8001174:	9808      	ldr	r0, [sp, #32]
 8001176:	b00a      	add	sp, #40	; 0x28
 8001178:	bd80      	pop	{r7, pc}

0800117a <_ZN50_$LT$T$u20$as$u20$core..convert..Into$LT$U$GT$$GT$4into17h030525f954c9e9aeE>:
 800117a:	b081      	sub	sp, #4
 800117c:	f88d 0002 	strb.w	r0, [sp, #2]
 8001180:	f88d 0003 	strb.w	r0, [sp, #3]
 8001184:	f89d 0003 	ldrb.w	r0, [sp, #3]
 8001188:	f000 0001 	and.w	r0, r0, #1
 800118c:	b001      	add	sp, #4
 800118e:	4770      	bx	lr

08001190 <_ZN50_$LT$T$u20$as$u20$core..convert..Into$LT$U$GT$$GT$4into17h716d485b053b16edE>:
 8001190:	b081      	sub	sp, #4
 8001192:	f88d 0002 	strb.w	r0, [sp, #2]
 8001196:	f88d 0003 	strb.w	r0, [sp, #3]
 800119a:	f89d 0003 	ldrb.w	r0, [sp, #3]
 800119e:	f000 0001 	and.w	r0, r0, #1
 80011a2:	b001      	add	sp, #4
 80011a4:	4770      	bx	lr

080011a6 <_ZN50_$LT$T$u20$as$u20$core..convert..Into$LT$U$GT$$GT$4into17h7447806a74fb38ecE>:
 80011a6:	b081      	sub	sp, #4
 80011a8:	f88d 0002 	strb.w	r0, [sp, #2]
 80011ac:	f88d 0003 	strb.w	r0, [sp, #3]
 80011b0:	f89d 0003 	ldrb.w	r0, [sp, #3]
 80011b4:	f000 0001 	and.w	r0, r0, #1
 80011b8:	b001      	add	sp, #4
 80011ba:	4770      	bx	lr

080011bc <_ZN50_$LT$T$u20$as$u20$core..convert..Into$LT$U$GT$$GT$4into17hdb6dc264fb6a8147E>:
 80011bc:	b081      	sub	sp, #4
 80011be:	2001      	movs	r0, #1
 80011c0:	b001      	add	sp, #4
 80011c2:	4770      	bx	lr

080011c4 <_ZN50_$LT$T$u20$as$u20$core..convert..Into$LT$U$GT$$GT$4into17h2dd4300fca55fbfcE>:
 80011c4:	b081      	sub	sp, #4
 80011c6:	f88d 0002 	strb.w	r0, [sp, #2]
 80011ca:	f88d 0003 	strb.w	r0, [sp, #3]
 80011ce:	f89d 0003 	ldrb.w	r0, [sp, #3]
 80011d2:	b001      	add	sp, #4
 80011d4:	4770      	bx	lr

080011d6 <_ZN50_$LT$T$u20$as$u20$core..convert..Into$LT$U$GT$$GT$4into17h48561233cc38dec0E>:
 80011d6:	b081      	sub	sp, #4
 80011d8:	f88d 0002 	strb.w	r0, [sp, #2]
 80011dc:	f88d 0003 	strb.w	r0, [sp, #3]
 80011e0:	f89d 0003 	ldrb.w	r0, [sp, #3]
 80011e4:	b001      	add	sp, #4
 80011e6:	4770      	bx	lr

080011e8 <_ZN50_$LT$T$u20$as$u20$core..convert..Into$LT$U$GT$$GT$4into17h54b3afe1fd5999a1E>:
 80011e8:	b081      	sub	sp, #4
 80011ea:	f88d 0002 	strb.w	r0, [sp, #2]
 80011ee:	f88d 0003 	strb.w	r0, [sp, #3]
 80011f2:	f89d 0003 	ldrb.w	r0, [sp, #3]
 80011f6:	b001      	add	sp, #4
 80011f8:	4770      	bx	lr

080011fa <_ZN50_$LT$T$u20$as$u20$core..convert..Into$LT$U$GT$$GT$4into17h65f1b4939c75fda0E>:
 80011fa:	b081      	sub	sp, #4
 80011fc:	f88d 0002 	strb.w	r0, [sp, #2]
 8001200:	f88d 0003 	strb.w	r0, [sp, #3]
 8001204:	f89d 0003 	ldrb.w	r0, [sp, #3]
 8001208:	b001      	add	sp, #4
 800120a:	4770      	bx	lr

0800120c <_ZN50_$LT$T$u20$as$u20$core..convert..Into$LT$U$GT$$GT$4into17hae30d7fd911b2489E>:
 800120c:	b081      	sub	sp, #4
 800120e:	f88d 0002 	strb.w	r0, [sp, #2]
 8001212:	f88d 0003 	strb.w	r0, [sp, #3]
 8001216:	f89d 0003 	ldrb.w	r0, [sp, #3]
 800121a:	f000 0001 	and.w	r0, r0, #1
 800121e:	b001      	add	sp, #4
 8001220:	4770      	bx	lr

08001222 <_ZN50_$LT$T$u20$as$u20$core..convert..Into$LT$U$GT$$GT$4into17hb174ce467e5c2bc5E>:
 8001222:	b081      	sub	sp, #4
 8001224:	f88d 0002 	strb.w	r0, [sp, #2]
 8001228:	f88d 0003 	strb.w	r0, [sp, #3]
 800122c:	f89d 0003 	ldrb.w	r0, [sp, #3]
 8001230:	b001      	add	sp, #4
 8001232:	4770      	bx	lr

08001234 <_ZN50_$LT$T$u20$as$u20$core..convert..Into$LT$U$GT$$GT$4into17hb4c4155eaa2dcca5E>:
 8001234:	b081      	sub	sp, #4
 8001236:	f88d 0002 	strb.w	r0, [sp, #2]
 800123a:	f88d 0003 	strb.w	r0, [sp, #3]
 800123e:	f89d 0003 	ldrb.w	r0, [sp, #3]
 8001242:	b001      	add	sp, #4
 8001244:	4770      	bx	lr

08001246 <_ZN54_$LT$u32$u20$as$u20$stm32f3xx_hal_v2..time..U32Ext$GT$2hz17h855bf6da905bfaecE>:
 8001246:	b081      	sub	sp, #4
 8001248:	9000      	str	r0, [sp, #0]
 800124a:	b001      	add	sp, #4
 800124c:	4770      	bx	lr

0800124e <_ZN4core3cmp5impls55_$LT$impl$u20$core..cmp..PartialEq$u20$for$u20$bool$GT$2eq17h1af9d3ce154a7d88E>:
 800124e:	b082      	sub	sp, #8
 8001250:	9000      	str	r0, [sp, #0]
 8001252:	9101      	str	r1, [sp, #4]
 8001254:	7800      	ldrb	r0, [r0, #0]
 8001256:	7809      	ldrb	r1, [r1, #0]
 8001258:	4041      	eors	r1, r0
 800125a:	2001      	movs	r0, #1
 800125c:	4388      	bics	r0, r1
 800125e:	b002      	add	sp, #8
 8001260:	4770      	bx	lr

08001262 <_ZN50_$LT$T$u20$as$u20$core..convert..Into$LT$U$GT$$GT$4into17h81d42a306be019dfE>:
 8001262:	b081      	sub	sp, #4
 8001264:	f88d 0002 	strb.w	r0, [sp, #2]
 8001268:	f88d 0003 	strb.w	r0, [sp, #3]
 800126c:	f89d 0003 	ldrb.w	r0, [sp, #3]
 8001270:	b001      	add	sp, #4
 8001272:	4770      	bx	lr

08001274 <_ZN50_$LT$T$u20$as$u20$core..convert..Into$LT$U$GT$$GT$4into17hca3807e3b612d347E>:
 8001274:	b081      	sub	sp, #4
 8001276:	f88d 0002 	strb.w	r0, [sp, #2]
 800127a:	f88d 0003 	strb.w	r0, [sp, #3]
 800127e:	f89d 0003 	ldrb.w	r0, [sp, #3]
 8001282:	f000 0001 	and.w	r0, r0, #1
 8001286:	b001      	add	sp, #4
 8001288:	4770      	bx	lr

0800128a <_ZN4core6option15Option$LT$T$GT$6map_or17h0bcd8a97a5403012E>:
 800128a:	b580      	push	{r7, lr}
 800128c:	466f      	mov	r7, sp
 800128e:	b088      	sub	sp, #32
 8001290:	f8d7 c008 	ldr.w	ip, [r7, #8]
 8001294:	f8cd c004 	str.w	ip, [sp, #4]
 8001298:	469c      	mov	ip, r3
 800129a:	f8cd c008 	str.w	ip, [sp, #8]
 800129e:	4694      	mov	ip, r2
 80012a0:	f8cd c00c 	str.w	ip, [sp, #12]
 80012a4:	9004      	str	r0, [sp, #16]
 80012a6:	9105      	str	r1, [sp, #20]
 80012a8:	f807 2c06 	strb.w	r2, [r7, #-6]
 80012ac:	f807 3c05 	strb.w	r3, [r7, #-5]
 80012b0:	9804      	ldr	r0, [sp, #16]
 80012b2:	b938      	cbnz	r0, 80012c4 <_ZN4core6option15Option$LT$T$GT$6map_or17h0bcd8a97a5403012E+0x3a>
 80012b4:	e7ff      	b.n	80012b6 <_ZN4core6option15Option$LT$T$GT$6map_or17h0bcd8a97a5403012E+0x2c>
 80012b6:	9802      	ldr	r0, [sp, #8]
 80012b8:	9903      	ldr	r1, [sp, #12]
 80012ba:	f88d 1018 	strb.w	r1, [sp, #24]
 80012be:	f88d 0019 	strb.w	r0, [sp, #25]
 80012c2:	e009      	b.n	80012d8 <_ZN4core6option15Option$LT$T$GT$6map_or17h0bcd8a97a5403012E+0x4e>
 80012c4:	9801      	ldr	r0, [sp, #4]
 80012c6:	9905      	ldr	r1, [sp, #20]
 80012c8:	9107      	str	r1, [sp, #28]
 80012ca:	f000 fec5 	bl	8002058 <_ZN16stm32f3xx_hal_v23rcc4CFGR6freeze28_$u7b$$u7b$closure$u7d$$u7d$17hfeb8e916e993748bE>
 80012ce:	f88d 0018 	strb.w	r0, [sp, #24]
 80012d2:	f88d 1019 	strb.w	r1, [sp, #25]
 80012d6:	e005      	b.n	80012e4 <_ZN4core6option15Option$LT$T$GT$6map_or17h0bcd8a97a5403012E+0x5a>
 80012d8:	f89d 0018 	ldrb.w	r0, [sp, #24]
 80012dc:	f89d 1019 	ldrb.w	r1, [sp, #25]
 80012e0:	b008      	add	sp, #32
 80012e2:	bd80      	pop	{r7, pc}
 80012e4:	e7f8      	b.n	80012d8 <_ZN4core6option15Option$LT$T$GT$6map_or17h0bcd8a97a5403012E+0x4e>

080012e6 <_ZN4core6option15Option$LT$T$GT$6map_or17h9a1244551abbeafdE>:
 80012e6:	b580      	push	{r7, lr}
 80012e8:	466f      	mov	r7, sp
 80012ea:	b08a      	sub	sp, #40	; 0x28
 80012ec:	9300      	str	r3, [sp, #0]
 80012ee:	f8d7 c008 	ldr.w	ip, [r7, #8]
 80012f2:	f8cd c004 	str.w	ip, [sp, #4]
 80012f6:	4694      	mov	ip, r2
 80012f8:	f8cd c008 	str.w	ip, [sp, #8]
 80012fc:	9003      	str	r0, [sp, #12]
 80012fe:	9104      	str	r1, [sp, #16]
 8001300:	f88d 201c 	strb.w	r2, [sp, #28]
 8001304:	9308      	str	r3, [sp, #32]
 8001306:	9803      	ldr	r0, [sp, #12]
 8001308:	b930      	cbnz	r0, 8001318 <_ZN4core6option15Option$LT$T$GT$6map_or17h9a1244551abbeafdE+0x32>
 800130a:	e7ff      	b.n	800130c <_ZN4core6option15Option$LT$T$GT$6map_or17h9a1244551abbeafdE+0x26>
 800130c:	9800      	ldr	r0, [sp, #0]
 800130e:	9902      	ldr	r1, [sp, #8]
 8001310:	f88d 1014 	strb.w	r1, [sp, #20]
 8001314:	9006      	str	r0, [sp, #24]
 8001316:	e008      	b.n	800132a <_ZN4core6option15Option$LT$T$GT$6map_or17h9a1244551abbeafdE+0x44>
 8001318:	9801      	ldr	r0, [sp, #4]
 800131a:	9904      	ldr	r1, [sp, #16]
 800131c:	9109      	str	r1, [sp, #36]	; 0x24
 800131e:	f000 fd64 	bl	8001dea <_ZN16stm32f3xx_hal_v23rcc4CFGR6freeze28_$u7b$$u7b$closure$u7d$$u7d$17hcdd4e0be3c42e2a1E>
 8001322:	f88d 0014 	strb.w	r0, [sp, #20]
 8001326:	9106      	str	r1, [sp, #24]
 8001328:	e004      	b.n	8001334 <_ZN4core6option15Option$LT$T$GT$6map_or17h9a1244551abbeafdE+0x4e>
 800132a:	9906      	ldr	r1, [sp, #24]
 800132c:	f89d 0014 	ldrb.w	r0, [sp, #20]
 8001330:	b00a      	add	sp, #40	; 0x28
 8001332:	bd80      	pop	{r7, pc}
 8001334:	e7f9      	b.n	800132a <_ZN4core6option15Option$LT$T$GT$6map_or17h9a1244551abbeafdE+0x44>

08001336 <_ZN4core6option15Option$LT$T$GT$6map_or17he4c31f4cfd55b6e9E>:
 8001336:	b580      	push	{r7, lr}
 8001338:	466f      	mov	r7, sp
 800133a:	b088      	sub	sp, #32
 800133c:	f8d7 c008 	ldr.w	ip, [r7, #8]
 8001340:	f8cd c004 	str.w	ip, [sp, #4]
 8001344:	469c      	mov	ip, r3
 8001346:	f8cd c008 	str.w	ip, [sp, #8]
 800134a:	4694      	mov	ip, r2
 800134c:	f8cd c00c 	str.w	ip, [sp, #12]
 8001350:	9004      	str	r0, [sp, #16]
 8001352:	9105      	str	r1, [sp, #20]
 8001354:	f807 2c06 	strb.w	r2, [r7, #-6]
 8001358:	f807 3c05 	strb.w	r3, [r7, #-5]
 800135c:	9804      	ldr	r0, [sp, #16]
 800135e:	b938      	cbnz	r0, 8001370 <_ZN4core6option15Option$LT$T$GT$6map_or17he4c31f4cfd55b6e9E+0x3a>
 8001360:	e7ff      	b.n	8001362 <_ZN4core6option15Option$LT$T$GT$6map_or17he4c31f4cfd55b6e9E+0x2c>
 8001362:	9802      	ldr	r0, [sp, #8]
 8001364:	9903      	ldr	r1, [sp, #12]
 8001366:	f88d 1018 	strb.w	r1, [sp, #24]
 800136a:	f88d 0019 	strb.w	r0, [sp, #25]
 800136e:	e009      	b.n	8001384 <_ZN4core6option15Option$LT$T$GT$6map_or17he4c31f4cfd55b6e9E+0x4e>
 8001370:	9801      	ldr	r0, [sp, #4]
 8001372:	9905      	ldr	r1, [sp, #20]
 8001374:	9107      	str	r1, [sp, #28]
 8001376:	f000 fdf6 	bl	8001f66 <_ZN16stm32f3xx_hal_v23rcc4CFGR6freeze28_$u7b$$u7b$closure$u7d$$u7d$17h0acd494610b2fc95E>
 800137a:	f88d 0018 	strb.w	r0, [sp, #24]
 800137e:	f88d 1019 	strb.w	r1, [sp, #25]
 8001382:	e005      	b.n	8001390 <_ZN4core6option15Option$LT$T$GT$6map_or17he4c31f4cfd55b6e9E+0x5a>
 8001384:	f89d 0018 	ldrb.w	r0, [sp, #24]
 8001388:	f89d 1019 	ldrb.w	r1, [sp, #25]
 800138c:	b008      	add	sp, #32
 800138e:	bd80      	pop	{r7, pc}
 8001390:	e7f8      	b.n	8001384 <_ZN4core6option15Option$LT$T$GT$6map_or17he4c31f4cfd55b6e9E+0x4e>

08001392 <_ZN4core6option15Option$LT$T$GT$7is_none17h182324c17d7d69d4E>:
 8001392:	b082      	sub	sp, #8
 8001394:	9001      	str	r0, [sp, #4]
 8001396:	6800      	ldr	r0, [r0, #0]
 8001398:	2801      	cmp	r0, #1
 800139a:	d104      	bne.n	80013a6 <_ZN4core6option15Option$LT$T$GT$7is_none17h182324c17d7d69d4E+0x14>
 800139c:	e7ff      	b.n	800139e <_ZN4core6option15Option$LT$T$GT$7is_none17h182324c17d7d69d4E+0xc>
 800139e:	2001      	movs	r0, #1
 80013a0:	f88d 0003 	strb.w	r0, [sp, #3]
 80013a4:	e003      	b.n	80013ae <_ZN4core6option15Option$LT$T$GT$7is_none17h182324c17d7d69d4E+0x1c>
 80013a6:	2000      	movs	r0, #0
 80013a8:	f88d 0003 	strb.w	r0, [sp, #3]
 80013ac:	e7ff      	b.n	80013ae <_ZN4core6option15Option$LT$T$GT$7is_none17h182324c17d7d69d4E+0x1c>
 80013ae:	f89d 1003 	ldrb.w	r1, [sp, #3]
 80013b2:	2001      	movs	r0, #1
 80013b4:	4388      	bics	r0, r1
 80013b6:	b002      	add	sp, #8
 80013b8:	4770      	bx	lr

080013ba <_ZN4core6option15Option$LT$T$GT$7is_some17h708d80aaddbe0a37E>:
 80013ba:	b082      	sub	sp, #8
 80013bc:	9001      	str	r0, [sp, #4]
 80013be:	7800      	ldrb	r0, [r0, #0]
 80013c0:	2803      	cmp	r0, #3
 80013c2:	d004      	beq.n	80013ce <_ZN4core6option15Option$LT$T$GT$7is_some17h708d80aaddbe0a37E+0x14>
 80013c4:	e7ff      	b.n	80013c6 <_ZN4core6option15Option$LT$T$GT$7is_some17h708d80aaddbe0a37E+0xc>
 80013c6:	2001      	movs	r0, #1
 80013c8:	f88d 0003 	strb.w	r0, [sp, #3]
 80013cc:	e003      	b.n	80013d6 <_ZN4core6option15Option$LT$T$GT$7is_some17h708d80aaddbe0a37E+0x1c>
 80013ce:	2000      	movs	r0, #0
 80013d0:	f88d 0003 	strb.w	r0, [sp, #3]
 80013d4:	e7ff      	b.n	80013d6 <_ZN4core6option15Option$LT$T$GT$7is_some17h708d80aaddbe0a37E+0x1c>
 80013d6:	f89d 0003 	ldrb.w	r0, [sp, #3]
 80013da:	f000 0001 	and.w	r0, r0, #1
 80013de:	b002      	add	sp, #8
 80013e0:	4770      	bx	lr

080013e2 <_ZN50_$LT$T$u20$as$u20$core..convert..Into$LT$U$GT$$GT$4into17ha83fb31ff1219e7fE>:
 80013e2:	b081      	sub	sp, #4
 80013e4:	f88d 0002 	strb.w	r0, [sp, #2]
 80013e8:	f88d 0003 	strb.w	r0, [sp, #3]
 80013ec:	f89d 0003 	ldrb.w	r0, [sp, #3]
 80013f0:	f000 0001 	and.w	r0, r0, #1
 80013f4:	b001      	add	sp, #4
 80013f6:	4770      	bx	lr

080013f8 <_ZN79_$LT$stm32f3..stm32f303..FLASH$u20$as$u20$stm32f3xx_hal_v2..flash..FlashExt$GT$9constrain17h2bb622bbdfcadd6dE>:
 80013f8:	b081      	sub	sp, #4
 80013fa:	b001      	add	sp, #4
 80013fc:	4770      	bx	lr

080013fe <_ZN16stm32f3xx_hal_v25flash3ACR3acr17ha134d3504aec9ccbE>:
 80013fe:	b081      	sub	sp, #4
 8001400:	9000      	str	r0, [sp, #0]
 8001402:	f242 0000 	movw	r0, #8192	; 0x2000
 8001406:	f2c4 0002 	movt	r0, #16386	; 0x4002
 800140a:	b001      	add	sp, #4
 800140c:	4770      	bx	lr

0800140e <_ZN73_$LT$stm32f3..stm32f303..RCC$u20$as$u20$stm32f3xx_hal_v2..rcc..RccExt$GT$9constrain17h9108120d8149964fE>:
 800140e:	b5b0      	push	{r4, r5, r7, lr}
 8001410:	af02      	add	r7, sp, #8
 8001412:	b090      	sub	sp, #64	; 0x40
 8001414:	9001      	str	r0, [sp, #4]
 8001416:	a804      	add	r0, sp, #16
 8001418:	9002      	str	r0, [sp, #8]
 800141a:	f001 f867 	bl	80024ec <_ZN70_$LT$stm32f3xx_hal_v2..rcc..CFGR$u20$as$u20$core..default..Default$GT$7default17h7d7e3d2cb4941aceE>
 800141e:	9801      	ldr	r0, [sp, #4]
 8001420:	9902      	ldr	r1, [sp, #8]
 8001422:	e8b1 501c 	ldmia.w	r1!, {r2, r3, r4, ip, lr}
 8001426:	e8a0 501c 	stmia.w	r0!, {r2, r3, r4, ip, lr}
 800142a:	e891 503c 	ldmia.w	r1, {r2, r3, r4, r5, ip, lr}
 800142e:	e880 503c 	stmia.w	r0, {r2, r3, r4, r5, ip, lr}
 8001432:	b010      	add	sp, #64	; 0x40
 8001434:	bdb0      	pop	{r4, r5, r7, pc}

08001436 <_ZN16stm32f3xx_hal_v23rcc4APB13enr17h8cc4423261840716E>:
 8001436:	b081      	sub	sp, #4
 8001438:	9000      	str	r0, [sp, #0]
 800143a:	f241 001c 	movw	r0, #4124	; 0x101c
 800143e:	f2c4 0002 	movt	r0, #16386	; 0x4002
 8001442:	b001      	add	sp, #4
 8001444:	4770      	bx	lr

08001446 <_ZN16stm32f3xx_hal_v23rcc4APB14rstr17h9b92f27c38107c57E>:
 8001446:	b081      	sub	sp, #4
 8001448:	9000      	str	r0, [sp, #0]
 800144a:	f241 0010 	movw	r0, #4112	; 0x1010
 800144e:	f2c4 0002 	movt	r0, #16386	; 0x4002
 8001452:	b001      	add	sp, #4
 8001454:	4770      	bx	lr

08001456 <_ZN16stm32f3xx_hal_v23rcc3gcd17hb7470749088c076dE>:
 8001456:	b580      	push	{r7, lr}
 8001458:	466f      	mov	r7, sp
 800145a:	b086      	sub	sp, #24
 800145c:	9003      	str	r0, [sp, #12]
 800145e:	9104      	str	r1, [sp, #16]
 8001460:	e7ff      	b.n	8001462 <_ZN16stm32f3xx_hal_v23rcc3gcd17hb7470749088c076dE+0xc>
 8001462:	9804      	ldr	r0, [sp, #16]
 8001464:	b918      	cbnz	r0, 800146e <_ZN16stm32f3xx_hal_v23rcc3gcd17hb7470749088c076dE+0x18>
 8001466:	e7ff      	b.n	8001468 <_ZN16stm32f3xx_hal_v23rcc3gcd17hb7470749088c076dE+0x12>
 8001468:	9803      	ldr	r0, [sp, #12]
 800146a:	b006      	add	sp, #24
 800146c:	bd80      	pop	{r7, pc}
 800146e:	9803      	ldr	r0, [sp, #12]
 8001470:	9001      	str	r0, [sp, #4]
 8001472:	9804      	ldr	r0, [sp, #16]
 8001474:	9002      	str	r0, [sp, #8]
 8001476:	b158      	cbz	r0, 8001490 <_ZN16stm32f3xx_hal_v23rcc3gcd17hb7470749088c076dE+0x3a>
 8001478:	e7ff      	b.n	800147a <_ZN16stm32f3xx_hal_v23rcc3gcd17hb7470749088c076dE+0x24>
 800147a:	9902      	ldr	r1, [sp, #8]
 800147c:	9a01      	ldr	r2, [sp, #4]
 800147e:	fbb2 f0f1 	udiv	r0, r2, r1
 8001482:	fb00 2011 	mls	r0, r0, r1, r2
 8001486:	9005      	str	r0, [sp, #20]
 8001488:	9904      	ldr	r1, [sp, #16]
 800148a:	9103      	str	r1, [sp, #12]
 800148c:	9004      	str	r0, [sp, #16]
 800148e:	e7e8      	b.n	8001462 <_ZN16stm32f3xx_hal_v23rcc3gcd17hb7470749088c076dE+0xc>
 8001490:	f244 20a8 	movw	r0, #17064	; 0x42a8
 8001494:	f6c0 0000 	movt	r0, #2048	; 0x800
 8001498:	f002 f98b 	bl	80037b2 <_ZN4core9panicking11panic_const23panic_const_rem_by_zero17hd3bee78dc921673dE>

0800149c <_ZN16stm32f3xx_hal_v23rcc12into_pll_mul17hb73459ecdabe23dbE>:
 800149c:	b580      	push	{r7, lr}
 800149e:	466f      	mov	r7, sp
 80014a0:	b082      	sub	sp, #8
 80014a2:	f807 0c01 	strb.w	r0, [r7, #-1]
 80014a6:	3802      	subs	r0, #2
 80014a8:	b2c0      	uxtb	r0, r0
 80014aa:	4601      	mov	r1, r0
 80014ac:	9100      	str	r1, [sp, #0]
 80014ae:	280e      	cmp	r0, #14
 80014b0:	d80a      	bhi.n	80014c8 <_ZN16stm32f3xx_hal_v23rcc12into_pll_mul17hb73459ecdabe23dbE+0x2c>
 80014b2:	9900      	ldr	r1, [sp, #0]
 80014b4:	e8df f001 	tbb	[pc, r1]
 80014b8:	1f1b1713 	.word	0x1f1b1713
 80014bc:	2f2b2723 	.word	0x2f2b2723
 80014c0:	3f3b3733 	.word	0x3f3b3733
 80014c4:	004b4743 	.word	0x004b4743
 80014c8:	f244 20b8 	movw	r0, #17080	; 0x42b8
 80014cc:	f6c0 0000 	movt	r0, #2048	; 0x800
 80014d0:	f244 22e0 	movw	r2, #17120	; 0x42e0
 80014d4:	f6c0 0200 	movt	r2, #2048	; 0x800
 80014d8:	2128      	movs	r1, #40	; 0x28
 80014da:	f001 fbb2 	bl	8002c42 <_ZN4core9panicking5panic17h080ae1d68604d494E>
 80014de:	2000      	movs	r0, #0
 80014e0:	f807 0c02 	strb.w	r0, [r7, #-2]
 80014e4:	e037      	b.n	8001556 <_ZN16stm32f3xx_hal_v23rcc12into_pll_mul17hb73459ecdabe23dbE+0xba>
 80014e6:	2001      	movs	r0, #1
 80014e8:	f807 0c02 	strb.w	r0, [r7, #-2]
 80014ec:	e033      	b.n	8001556 <_ZN16stm32f3xx_hal_v23rcc12into_pll_mul17hb73459ecdabe23dbE+0xba>
 80014ee:	2002      	movs	r0, #2
 80014f0:	f807 0c02 	strb.w	r0, [r7, #-2]
 80014f4:	e02f      	b.n	8001556 <_ZN16stm32f3xx_hal_v23rcc12into_pll_mul17hb73459ecdabe23dbE+0xba>
 80014f6:	2003      	movs	r0, #3
 80014f8:	f807 0c02 	strb.w	r0, [r7, #-2]
 80014fc:	e02b      	b.n	8001556 <_ZN16stm32f3xx_hal_v23rcc12into_pll_mul17hb73459ecdabe23dbE+0xba>
 80014fe:	2004      	movs	r0, #4
 8001500:	f807 0c02 	strb.w	r0, [r7, #-2]
 8001504:	e027      	b.n	8001556 <_ZN16stm32f3xx_hal_v23rcc12into_pll_mul17hb73459ecdabe23dbE+0xba>
 8001506:	2005      	movs	r0, #5
 8001508:	f807 0c02 	strb.w	r0, [r7, #-2]
 800150c:	e023      	b.n	8001556 <_ZN16stm32f3xx_hal_v23rcc12into_pll_mul17hb73459ecdabe23dbE+0xba>
 800150e:	2006      	movs	r0, #6
 8001510:	f807 0c02 	strb.w	r0, [r7, #-2]
 8001514:	e01f      	b.n	8001556 <_ZN16stm32f3xx_hal_v23rcc12into_pll_mul17hb73459ecdabe23dbE+0xba>
 8001516:	2007      	movs	r0, #7
 8001518:	f807 0c02 	strb.w	r0, [r7, #-2]
 800151c:	e01b      	b.n	8001556 <_ZN16stm32f3xx_hal_v23rcc12into_pll_mul17hb73459ecdabe23dbE+0xba>
 800151e:	2008      	movs	r0, #8
 8001520:	f807 0c02 	strb.w	r0, [r7, #-2]
 8001524:	e017      	b.n	8001556 <_ZN16stm32f3xx_hal_v23rcc12into_pll_mul17hb73459ecdabe23dbE+0xba>
 8001526:	2009      	movs	r0, #9
 8001528:	f807 0c02 	strb.w	r0, [r7, #-2]
 800152c:	e013      	b.n	8001556 <_ZN16stm32f3xx_hal_v23rcc12into_pll_mul17hb73459ecdabe23dbE+0xba>
 800152e:	200a      	movs	r0, #10
 8001530:	f807 0c02 	strb.w	r0, [r7, #-2]
 8001534:	e00f      	b.n	8001556 <_ZN16stm32f3xx_hal_v23rcc12into_pll_mul17hb73459ecdabe23dbE+0xba>
 8001536:	200b      	movs	r0, #11
 8001538:	f807 0c02 	strb.w	r0, [r7, #-2]
 800153c:	e00b      	b.n	8001556 <_ZN16stm32f3xx_hal_v23rcc12into_pll_mul17hb73459ecdabe23dbE+0xba>
 800153e:	200c      	movs	r0, #12
 8001540:	f807 0c02 	strb.w	r0, [r7, #-2]
 8001544:	e007      	b.n	8001556 <_ZN16stm32f3xx_hal_v23rcc12into_pll_mul17hb73459ecdabe23dbE+0xba>
 8001546:	200d      	movs	r0, #13
 8001548:	f807 0c02 	strb.w	r0, [r7, #-2]
 800154c:	e003      	b.n	8001556 <_ZN16stm32f3xx_hal_v23rcc12into_pll_mul17hb73459ecdabe23dbE+0xba>
 800154e:	200e      	movs	r0, #14
 8001550:	f807 0c02 	strb.w	r0, [r7, #-2]
 8001554:	e7ff      	b.n	8001556 <_ZN16stm32f3xx_hal_v23rcc12into_pll_mul17hb73459ecdabe23dbE+0xba>
 8001556:	f817 0c02 	ldrb.w	r0, [r7, #-2]
 800155a:	b002      	add	sp, #8
 800155c:	bd80      	pop	{r7, pc}
 800155e:	d4d4      	bmi.n	800150a <_ZN16stm32f3xx_hal_v23rcc12into_pll_mul17hb73459ecdabe23dbE+0x6e>

08001560 <_ZN16stm32f3xx_hal_v23rcc12into_pre_div17hfa53c057af85cb30E>:
 8001560:	b580      	push	{r7, lr}
 8001562:	466f      	mov	r7, sp
 8001564:	b082      	sub	sp, #8
 8001566:	f807 0c01 	strb.w	r0, [r7, #-1]
 800156a:	3801      	subs	r0, #1
 800156c:	b2c0      	uxtb	r0, r0
 800156e:	4601      	mov	r1, r0
 8001570:	9100      	str	r1, [sp, #0]
 8001572:	280f      	cmp	r0, #15
 8001574:	d80a      	bhi.n	800158c <_ZN16stm32f3xx_hal_v23rcc12into_pre_div17hfa53c057af85cb30E+0x2c>
 8001576:	9900      	ldr	r1, [sp, #0]
 8001578:	e8df f001 	tbb	[pc, r1]
 800157c:	1f1b1713 	.word	0x1f1b1713
 8001580:	2f2b2723 	.word	0x2f2b2723
 8001584:	3f3b3733 	.word	0x3f3b3733
 8001588:	4f4b4743 	.word	0x4f4b4743
 800158c:	f244 20b8 	movw	r0, #17080	; 0x42b8
 8001590:	f6c0 0000 	movt	r0, #2048	; 0x800
 8001594:	f244 22f0 	movw	r2, #17136	; 0x42f0
 8001598:	f6c0 0200 	movt	r2, #2048	; 0x800
 800159c:	2128      	movs	r1, #40	; 0x28
 800159e:	f001 fb50 	bl	8002c42 <_ZN4core9panicking5panic17h080ae1d68604d494E>
 80015a2:	2000      	movs	r0, #0
 80015a4:	f807 0c02 	strb.w	r0, [r7, #-2]
 80015a8:	e03b      	b.n	8001622 <_ZN16stm32f3xx_hal_v23rcc12into_pre_div17hfa53c057af85cb30E+0xc2>
 80015aa:	2001      	movs	r0, #1
 80015ac:	f807 0c02 	strb.w	r0, [r7, #-2]
 80015b0:	e037      	b.n	8001622 <_ZN16stm32f3xx_hal_v23rcc12into_pre_div17hfa53c057af85cb30E+0xc2>
 80015b2:	2002      	movs	r0, #2
 80015b4:	f807 0c02 	strb.w	r0, [r7, #-2]
 80015b8:	e033      	b.n	8001622 <_ZN16stm32f3xx_hal_v23rcc12into_pre_div17hfa53c057af85cb30E+0xc2>
 80015ba:	2003      	movs	r0, #3
 80015bc:	f807 0c02 	strb.w	r0, [r7, #-2]
 80015c0:	e02f      	b.n	8001622 <_ZN16stm32f3xx_hal_v23rcc12into_pre_div17hfa53c057af85cb30E+0xc2>
 80015c2:	2004      	movs	r0, #4
 80015c4:	f807 0c02 	strb.w	r0, [r7, #-2]
 80015c8:	e02b      	b.n	8001622 <_ZN16stm32f3xx_hal_v23rcc12into_pre_div17hfa53c057af85cb30E+0xc2>
 80015ca:	2005      	movs	r0, #5
 80015cc:	f807 0c02 	strb.w	r0, [r7, #-2]
 80015d0:	e027      	b.n	8001622 <_ZN16stm32f3xx_hal_v23rcc12into_pre_div17hfa53c057af85cb30E+0xc2>
 80015d2:	2006      	movs	r0, #6
 80015d4:	f807 0c02 	strb.w	r0, [r7, #-2]
 80015d8:	e023      	b.n	8001622 <_ZN16stm32f3xx_hal_v23rcc12into_pre_div17hfa53c057af85cb30E+0xc2>
 80015da:	2007      	movs	r0, #7
 80015dc:	f807 0c02 	strb.w	r0, [r7, #-2]
 80015e0:	e01f      	b.n	8001622 <_ZN16stm32f3xx_hal_v23rcc12into_pre_div17hfa53c057af85cb30E+0xc2>
 80015e2:	2008      	movs	r0, #8
 80015e4:	f807 0c02 	strb.w	r0, [r7, #-2]
 80015e8:	e01b      	b.n	8001622 <_ZN16stm32f3xx_hal_v23rcc12into_pre_div17hfa53c057af85cb30E+0xc2>
 80015ea:	2009      	movs	r0, #9
 80015ec:	f807 0c02 	strb.w	r0, [r7, #-2]
 80015f0:	e017      	b.n	8001622 <_ZN16stm32f3xx_hal_v23rcc12into_pre_div17hfa53c057af85cb30E+0xc2>
 80015f2:	200a      	movs	r0, #10
 80015f4:	f807 0c02 	strb.w	r0, [r7, #-2]
 80015f8:	e013      	b.n	8001622 <_ZN16stm32f3xx_hal_v23rcc12into_pre_div17hfa53c057af85cb30E+0xc2>
 80015fa:	200b      	movs	r0, #11
 80015fc:	f807 0c02 	strb.w	r0, [r7, #-2]
 8001600:	e00f      	b.n	8001622 <_ZN16stm32f3xx_hal_v23rcc12into_pre_div17hfa53c057af85cb30E+0xc2>
 8001602:	200c      	movs	r0, #12
 8001604:	f807 0c02 	strb.w	r0, [r7, #-2]
 8001608:	e00b      	b.n	8001622 <_ZN16stm32f3xx_hal_v23rcc12into_pre_div17hfa53c057af85cb30E+0xc2>
 800160a:	200d      	movs	r0, #13
 800160c:	f807 0c02 	strb.w	r0, [r7, #-2]
 8001610:	e007      	b.n	8001622 <_ZN16stm32f3xx_hal_v23rcc12into_pre_div17hfa53c057af85cb30E+0xc2>
 8001612:	200e      	movs	r0, #14
 8001614:	f807 0c02 	strb.w	r0, [r7, #-2]
 8001618:	e003      	b.n	8001622 <_ZN16stm32f3xx_hal_v23rcc12into_pre_div17hfa53c057af85cb30E+0xc2>
 800161a:	200f      	movs	r0, #15
 800161c:	f807 0c02 	strb.w	r0, [r7, #-2]
 8001620:	e7ff      	b.n	8001622 <_ZN16stm32f3xx_hal_v23rcc12into_pre_div17hfa53c057af85cb30E+0xc2>
 8001622:	f817 0c02 	ldrb.w	r0, [r7, #-2]
 8001626:	b002      	add	sp, #8
 8001628:	bd80      	pop	{r7, pc}

0800162a <_ZN16stm32f3xx_hal_v23rcc4CFGR8calc_pll17h1a133a66c633d308E>:
 800162a:	b580      	push	{r7, lr}
 800162c:	466f      	mov	r7, sp
 800162e:	b098      	sub	sp, #96	; 0x60
 8001630:	9209      	str	r2, [sp, #36]	; 0x24
 8001632:	9107      	str	r1, [sp, #28]
 8001634:	9008      	str	r0, [sp, #32]
 8001636:	9110      	str	r1, [sp, #64]	; 0x40
 8001638:	9211      	str	r2, [sp, #68]	; 0x44
 800163a:	6808      	ldr	r0, [r1, #0]
 800163c:	6849      	ldr	r1, [r1, #4]
 800163e:	f241 2200 	movw	r2, #4608	; 0x1200
 8001642:	f2c0 027a 	movt	r2, #122	; 0x7a
 8001646:	f000 ffb3 	bl	80025b0 <_ZN4core6option15Option$LT$T$GT$9unwrap_or17h1307b45fbbdc3236E>
 800164a:	4601      	mov	r1, r0
 800164c:	9809      	ldr	r0, [sp, #36]	; 0x24
 800164e:	460a      	mov	r2, r1
 8001650:	920a      	str	r2, [sp, #40]	; 0x28
 8001652:	9112      	str	r1, [sp, #72]	; 0x48
 8001654:	f7ff feff 	bl	8001456 <_ZN16stm32f3xx_hal_v23rcc3gcd17hb7470749088c076dE>
 8001658:	4601      	mov	r1, r0
 800165a:	910b      	str	r1, [sp, #44]	; 0x2c
 800165c:	9013      	str	r0, [sp, #76]	; 0x4c
 800165e:	b138      	cbz	r0, 8001670 <_ZN16stm32f3xx_hal_v23rcc4CFGR8calc_pll17h1a133a66c633d308E+0x46>
 8001660:	e7ff      	b.n	8001662 <_ZN16stm32f3xx_hal_v23rcc4CFGR8calc_pll17h1a133a66c633d308E+0x38>
 8001662:	980b      	ldr	r0, [sp, #44]	; 0x2c
 8001664:	9909      	ldr	r1, [sp, #36]	; 0x24
 8001666:	fbb1 f1f0 	udiv	r1, r1, r0
 800166a:	910c      	str	r1, [sp, #48]	; 0x30
 800166c:	b178      	cbz	r0, 800168e <_ZN16stm32f3xx_hal_v23rcc4CFGR8calc_pll17h1a133a66c633d308E+0x64>
 800166e:	e005      	b.n	800167c <_ZN16stm32f3xx_hal_v23rcc4CFGR8calc_pll17h1a133a66c633d308E+0x52>
 8001670:	f244 3000 	movw	r0, #17152	; 0x4300
 8001674:	f6c0 0000 	movt	r0, #2048	; 0x800
 8001678:	f002 f888 	bl	800378c <_ZN4core9panicking11panic_const23panic_const_div_by_zero17h2a31fcd9fa76bd10E>
 800167c:	980a      	ldr	r0, [sp, #40]	; 0x28
 800167e:	990b      	ldr	r1, [sp, #44]	; 0x2c
 8001680:	fbb0 f0f1 	udiv	r0, r0, r1
 8001684:	900d      	str	r0, [sp, #52]	; 0x34
 8001686:	980c      	ldr	r0, [sp, #48]	; 0x30
 8001688:	2801      	cmp	r0, #1
 800168a:	d006      	beq.n	800169a <_ZN16stm32f3xx_hal_v23rcc4CFGR8calc_pll17h1a133a66c633d308E+0x70>
 800168c:	e00c      	b.n	80016a8 <_ZN16stm32f3xx_hal_v23rcc4CFGR8calc_pll17h1a133a66c633d308E+0x7e>
 800168e:	f244 3010 	movw	r0, #17168	; 0x4310
 8001692:	f6c0 0000 	movt	r0, #2048	; 0x800
 8001696:	f002 f879 	bl	800378c <_ZN4core9panicking11panic_const23panic_const_div_by_zero17h2a31fcd9fa76bd10E>
 800169a:	990c      	ldr	r1, [sp, #48]	; 0x30
 800169c:	1848      	adds	r0, r1, r1
 800169e:	4602      	mov	r2, r0
 80016a0:	9206      	str	r2, [sp, #24]
 80016a2:	4288      	cmp	r0, r1
 80016a4:	d30d      	bcc.n	80016c2 <_ZN16stm32f3xx_hal_v23rcc4CFGR8calc_pll17h1a133a66c633d308E+0x98>
 80016a6:	e003      	b.n	80016b0 <_ZN16stm32f3xx_hal_v23rcc4CFGR8calc_pll17h1a133a66c633d308E+0x86>
 80016a8:	980c      	ldr	r0, [sp, #48]	; 0x30
 80016aa:	2811      	cmp	r0, #17
 80016ac:	d323      	bcc.n	80016f6 <_ZN16stm32f3xx_hal_v23rcc4CFGR8calc_pll17h1a133a66c633d308E+0xcc>
 80016ae:	e017      	b.n	80016e0 <_ZN16stm32f3xx_hal_v23rcc4CFGR8calc_pll17h1a133a66c633d308E+0xb6>
 80016b0:	9806      	ldr	r0, [sp, #24]
 80016b2:	900c      	str	r0, [sp, #48]	; 0x30
 80016b4:	990d      	ldr	r1, [sp, #52]	; 0x34
 80016b6:	1848      	adds	r0, r1, r1
 80016b8:	4602      	mov	r2, r0
 80016ba:	9205      	str	r2, [sp, #20]
 80016bc:	4288      	cmp	r0, r1
 80016be:	d309      	bcc.n	80016d4 <_ZN16stm32f3xx_hal_v23rcc4CFGR8calc_pll17h1a133a66c633d308E+0xaa>
 80016c0:	e005      	b.n	80016ce <_ZN16stm32f3xx_hal_v23rcc4CFGR8calc_pll17h1a133a66c633d308E+0xa4>
 80016c2:	f244 3020 	movw	r0, #17184	; 0x4320
 80016c6:	f6c0 0000 	movt	r0, #2048	; 0x800
 80016ca:	f002 f839 	bl	8003740 <_ZN4core9panicking11panic_const24panic_const_mul_overflow17h7dd007db0c33601cE>
 80016ce:	9805      	ldr	r0, [sp, #20]
 80016d0:	900d      	str	r0, [sp, #52]	; 0x34
 80016d2:	e7e9      	b.n	80016a8 <_ZN16stm32f3xx_hal_v23rcc4CFGR8calc_pll17h1a133a66c633d308E+0x7e>
 80016d4:	f244 3030 	movw	r0, #17200	; 0x4330
 80016d8:	f6c0 0000 	movt	r0, #2048	; 0x800
 80016dc:	f002 f830 	bl	8003740 <_ZN4core9panicking11panic_const24panic_const_mul_overflow17h7dd007db0c33601cE>
 80016e0:	f244 3040 	movw	r0, #17216	; 0x4340
 80016e4:	f6c0 0000 	movt	r0, #2048	; 0x800
 80016e8:	f244 3264 	movw	r2, #17252	; 0x4364
 80016ec:	f6c0 0200 	movt	r2, #2048	; 0x800
 80016f0:	2122      	movs	r1, #34	; 0x22
 80016f2:	f001 faa6 	bl	8002c42 <_ZN4core9panicking5panic17h080ae1d68604d494E>
 80016f6:	980d      	ldr	r0, [sp, #52]	; 0x34
 80016f8:	2811      	cmp	r0, #17
 80016fa:	d30b      	bcc.n	8001714 <_ZN16stm32f3xx_hal_v23rcc4CFGR8calc_pll17h1a133a66c633d308E+0xea>
 80016fc:	e7ff      	b.n	80016fe <_ZN16stm32f3xx_hal_v23rcc4CFGR8calc_pll17h1a133a66c633d308E+0xd4>
 80016fe:	f244 3074 	movw	r0, #17268	; 0x4374
 8001702:	f6c0 0000 	movt	r0, #2048	; 0x800
 8001706:	f244 3294 	movw	r2, #17300	; 0x4394
 800170a:	f6c0 0200 	movt	r2, #2048	; 0x800
 800170e:	211f      	movs	r1, #31
 8001710:	f001 fa97 	bl	8002c42 <_ZN4core9panicking5panic17h080ae1d68604d494E>
 8001714:	990c      	ldr	r1, [sp, #48]	; 0x30
 8001716:	9103      	str	r1, [sp, #12]
 8001718:	980d      	ldr	r0, [sp, #52]	; 0x34
 800171a:	9004      	str	r0, [sp, #16]
 800171c:	9114      	str	r1, [sp, #80]	; 0x50
 800171e:	9015      	str	r0, [sp, #84]	; 0x54
 8001720:	b150      	cbz	r0, 8001738 <_ZN16stm32f3xx_hal_v23rcc4CFGR8calc_pll17h1a133a66c633d308E+0x10e>
 8001722:	e7ff      	b.n	8001724 <_ZN16stm32f3xx_hal_v23rcc4CFGR8calc_pll17h1a133a66c633d308E+0xfa>
 8001724:	9903      	ldr	r1, [sp, #12]
 8001726:	980a      	ldr	r0, [sp, #40]	; 0x28
 8001728:	9a04      	ldr	r2, [sp, #16]
 800172a:	fbb0 f0f2 	udiv	r0, r0, r2
 800172e:	fba0 1001 	umull	r1, r0, r0, r1
 8001732:	9102      	str	r1, [sp, #8]
 8001734:	b978      	cbnz	r0, 8001756 <_ZN16stm32f3xx_hal_v23rcc4CFGR8calc_pll17h1a133a66c633d308E+0x12c>
 8001736:	e005      	b.n	8001744 <_ZN16stm32f3xx_hal_v23rcc4CFGR8calc_pll17h1a133a66c633d308E+0x11a>
 8001738:	f244 30a4 	movw	r0, #17316	; 0x43a4
 800173c:	f6c0 0000 	movt	r0, #2048	; 0x800
 8001740:	f002 f824 	bl	800378c <_ZN4core9panicking11panic_const23panic_const_div_by_zero17h2a31fcd9fa76bd10E>
 8001744:	9802      	ldr	r0, [sp, #8]
 8001746:	9016      	str	r0, [sp, #88]	; 0x58
 8001748:	f24a 2101 	movw	r1, #41473	; 0xa201
 800174c:	f2c0 414a 	movt	r1, #1098	; 0x44a
 8001750:	4288      	cmp	r0, r1
 8001752:	d311      	bcc.n	8001778 <_ZN16stm32f3xx_hal_v23rcc4CFGR8calc_pll17h1a133a66c633d308E+0x14e>
 8001754:	e005      	b.n	8001762 <_ZN16stm32f3xx_hal_v23rcc4CFGR8calc_pll17h1a133a66c633d308E+0x138>
 8001756:	f244 30a4 	movw	r0, #17316	; 0x43a4
 800175a:	f6c0 0000 	movt	r0, #2048	; 0x800
 800175e:	f001 ffef 	bl	8003740 <_ZN4core9panicking11panic_const24panic_const_mul_overflow17h7dd007db0c33601cE>
 8001762:	f244 30b4 	movw	r0, #17332	; 0x43b4
 8001766:	f6c0 0000 	movt	r0, #2048	; 0x800
 800176a:	f244 32dc 	movw	r2, #17372	; 0x43dc
 800176e:	f6c0 0200 	movt	r2, #2048	; 0x800
 8001772:	2126      	movs	r1, #38	; 0x26
 8001774:	f001 fa65 	bl	8002c42 <_ZN4core9panicking5panic17h080ae1d68604d494E>
 8001778:	9807      	ldr	r0, [sp, #28]
 800177a:	f000 ff05 	bl	8002588 <_ZN4core6option15Option$LT$T$GT$7is_some17h2e457d7a010802c4E>
 800177e:	b920      	cbnz	r0, 800178a <_ZN16stm32f3xx_hal_v23rcc4CFGR8calc_pll17h1a133a66c633d308E+0x160>
 8001780:	e7ff      	b.n	8001782 <_ZN16stm32f3xx_hal_v23rcc4CFGR8calc_pll17h1a133a66c633d308E+0x158>
 8001782:	2001      	movs	r0, #1
 8001784:	f807 0c25 	strb.w	r0, [r7, #-37]
 8001788:	e003      	b.n	8001792 <_ZN16stm32f3xx_hal_v23rcc4CFGR8calc_pll17h1a133a66c633d308E+0x168>
 800178a:	2002      	movs	r0, #2
 800178c:	f807 0c25 	strb.w	r0, [r7, #-37]
 8001790:	e7ff      	b.n	8001792 <_ZN16stm32f3xx_hal_v23rcc4CFGR8calc_pll17h1a133a66c633d308E+0x168>
 8001792:	9803      	ldr	r0, [sp, #12]
 8001794:	f7ff fe82 	bl	800149c <_ZN16stm32f3xx_hal_v23rcc12into_pll_mul17hb73459ecdabe23dbE>
 8001798:	4601      	mov	r1, r0
 800179a:	9804      	ldr	r0, [sp, #16]
 800179c:	9101      	str	r1, [sp, #4]
 800179e:	f807 1c02 	strb.w	r1, [r7, #-2]
 80017a2:	f7ff fedd 	bl	8001560 <_ZN16stm32f3xx_hal_v23rcc12into_pre_div17hfa53c057af85cb30E>
 80017a6:	9a01      	ldr	r2, [sp, #4]
 80017a8:	9908      	ldr	r1, [sp, #32]
 80017aa:	4684      	mov	ip, r0
 80017ac:	9802      	ldr	r0, [sp, #8]
 80017ae:	f807 cc01 	strb.w	ip, [r7, #-1]
 80017b2:	f817 3c25 	ldrb.w	r3, [r7, #-37]
 80017b6:	f807 cc21 	strb.w	ip, [r7, #-33]
 80017ba:	f88d 303c 	strb.w	r3, [sp, #60]	; 0x3c
 80017be:	f88d 203d 	strb.w	r2, [sp, #61]	; 0x3d
 80017c2:	f817 2c21 	ldrb.w	r2, [r7, #-33]
 80017c6:	f88d 203e 	strb.w	r2, [sp, #62]	; 0x3e
 80017ca:	6008      	str	r0, [r1, #0]
 80017cc:	f89d 003e 	ldrb.w	r0, [sp, #62]	; 0x3e
 80017d0:	7188      	strb	r0, [r1, #6]
 80017d2:	f8bd 003c 	ldrh.w	r0, [sp, #60]	; 0x3c
 80017d6:	8088      	strh	r0, [r1, #4]
 80017d8:	b018      	add	sp, #96	; 0x60
 80017da:	bd80      	pop	{r7, pc}

080017dc <_ZN16stm32f3xx_hal_v23rcc4CFGR10get_sysclk17hd24cbed6dbc98921E>:
 80017dc:	b580      	push	{r7, lr}
 80017de:	466f      	mov	r7, sp
 80017e0:	b09a      	sub	sp, #104	; 0x68
 80017e2:	460a      	mov	r2, r1
 80017e4:	9201      	str	r2, [sp, #4]
 80017e6:	9002      	str	r0, [sp, #8]
 80017e8:	9210      	str	r2, [sp, #64]	; 0x40
 80017ea:	6811      	ldr	r1, [r2, #0]
 80017ec:	6850      	ldr	r0, [r2, #4]
 80017ee:	6a13      	ldr	r3, [r2, #32]
 80017f0:	6a52      	ldr	r2, [r2, #36]	; 0x24
 80017f2:	9303      	str	r3, [sp, #12]
 80017f4:	9204      	str	r2, [sp, #16]
 80017f6:	9105      	str	r1, [sp, #20]
 80017f8:	9006      	str	r0, [sp, #24]
 80017fa:	9803      	ldr	r0, [sp, #12]
 80017fc:	b918      	cbnz	r0, 8001806 <_ZN16stm32f3xx_hal_v23rcc4CFGR10get_sysclk17hd24cbed6dbc98921E+0x2a>
 80017fe:	e7ff      	b.n	8001800 <_ZN16stm32f3xx_hal_v23rcc4CFGR10get_sysclk17hd24cbed6dbc98921E+0x24>
 8001800:	9805      	ldr	r0, [sp, #20]
 8001802:	b118      	cbz	r0, 800180c <_ZN16stm32f3xx_hal_v23rcc4CFGR10get_sysclk17hd24cbed6dbc98921E+0x30>
 8001804:	e019      	b.n	800183a <_ZN16stm32f3xx_hal_v23rcc4CFGR10get_sysclk17hd24cbed6dbc98921E+0x5e>
 8001806:	9805      	ldr	r0, [sp, #20]
 8001808:	b370      	cbz	r0, 8001868 <_ZN16stm32f3xx_hal_v23rcc4CFGR10get_sysclk17hd24cbed6dbc98921E+0x8c>
 800180a:	e038      	b.n	800187e <_ZN16stm32f3xx_hal_v23rcc4CFGR10get_sysclk17hd24cbed6dbc98921E+0xa2>
 800180c:	9902      	ldr	r1, [sp, #8]
 800180e:	2000      	movs	r0, #0
 8001810:	f88d 003c 	strb.w	r0, [sp, #60]	; 0x3c
 8001814:	2003      	movs	r0, #3
 8001816:	f807 0c2b 	strb.w	r0, [r7, #-43]
 800181a:	f241 2000 	movw	r0, #4608	; 0x1200
 800181e:	f2c0 007a 	movt	r0, #122	; 0x7a
 8001822:	6008      	str	r0, [r1, #0]
 8001824:	f89d 003c 	ldrb.w	r0, [sp, #60]	; 0x3c
 8001828:	7108      	strb	r0, [r1, #4]
 800182a:	f817 0c29 	ldrb.w	r0, [r7, #-41]
 800182e:	71c8      	strb	r0, [r1, #7]
 8001830:	f837 0c2b 	ldrh.w	r0, [r7, #-43]
 8001834:	f8a1 0005 	strh.w	r0, [r1, #5]
 8001838:	e014      	b.n	8001864 <_ZN16stm32f3xx_hal_v23rcc4CFGR10get_sysclk17hd24cbed6dbc98921E+0x88>
 800183a:	9902      	ldr	r1, [sp, #8]
 800183c:	9806      	ldr	r0, [sp, #24]
 800183e:	9011      	str	r0, [sp, #68]	; 0x44
 8001840:	2201      	movs	r2, #1
 8001842:	f88d 2038 	strb.w	r2, [sp, #56]	; 0x38
 8001846:	2203      	movs	r2, #3
 8001848:	f807 2c2f 	strb.w	r2, [r7, #-47]
 800184c:	6008      	str	r0, [r1, #0]
 800184e:	f89d 0038 	ldrb.w	r0, [sp, #56]	; 0x38
 8001852:	7108      	strb	r0, [r1, #4]
 8001854:	f817 0c2d 	ldrb.w	r0, [r7, #-45]
 8001858:	71c8      	strb	r0, [r1, #7]
 800185a:	f837 0c2f 	ldrh.w	r0, [r7, #-47]
 800185e:	f8a1 0005 	strh.w	r0, [r1, #5]
 8001862:	e7ff      	b.n	8001864 <_ZN16stm32f3xx_hal_v23rcc4CFGR10get_sysclk17hd24cbed6dbc98921E+0x88>
 8001864:	b01a      	add	sp, #104	; 0x68
 8001866:	bd80      	pop	{r7, pc}
 8001868:	a803      	add	r0, sp, #12
 800186a:	3004      	adds	r0, #4
 800186c:	9012      	str	r0, [sp, #72]	; 0x48
 800186e:	9804      	ldr	r0, [sp, #16]
 8001870:	f241 2100 	movw	r1, #4608	; 0x1200
 8001874:	f2c0 017a 	movt	r1, #122	; 0x7a
 8001878:	4288      	cmp	r0, r1
 800187a:	d032      	beq.n	80018e2 <_ZN16stm32f3xx_hal_v23rcc4CFGR10get_sysclk17hd24cbed6dbc98921E+0x106>
 800187c:	e009      	b.n	8001892 <_ZN16stm32f3xx_hal_v23rcc4CFGR10get_sysclk17hd24cbed6dbc98921E+0xb6>
 800187e:	a803      	add	r0, sp, #12
 8001880:	1d01      	adds	r1, r0, #4
 8001882:	9114      	str	r1, [sp, #80]	; 0x50
 8001884:	300c      	adds	r0, #12
 8001886:	9015      	str	r0, [sp, #84]	; 0x54
 8001888:	9804      	ldr	r0, [sp, #16]
 800188a:	9906      	ldr	r1, [sp, #24]
 800188c:	4288      	cmp	r0, r1
 800188e:	d041      	beq.n	8001914 <_ZN16stm32f3xx_hal_v23rcc4CFGR10get_sysclk17hd24cbed6dbc98921E+0x138>
 8001890:	e7ff      	b.n	8001892 <_ZN16stm32f3xx_hal_v23rcc4CFGR10get_sysclk17hd24cbed6dbc98921E+0xb6>
 8001892:	9901      	ldr	r1, [sp, #4]
 8001894:	9a04      	ldr	r2, [sp, #16]
 8001896:	9216      	str	r2, [sp, #88]	; 0x58
 8001898:	a80a      	add	r0, sp, #40	; 0x28
 800189a:	f7ff fec6 	bl	800162a <_ZN16stm32f3xx_hal_v23rcc4CFGR8calc_pll17h1a133a66c633d308E>
 800189e:	9902      	ldr	r1, [sp, #8]
 80018a0:	980a      	ldr	r0, [sp, #40]	; 0x28
 80018a2:	9017      	str	r0, [sp, #92]	; 0x5c
 80018a4:	f89d 202e 	ldrb.w	r2, [sp, #46]	; 0x2e
 80018a8:	f88d 2026 	strb.w	r2, [sp, #38]	; 0x26
 80018ac:	f8bd 202c 	ldrh.w	r2, [sp, #44]	; 0x2c
 80018b0:	f8ad 2024 	strh.w	r2, [sp, #36]	; 0x24
 80018b4:	2202      	movs	r2, #2
 80018b6:	f807 2c35 	strb.w	r2, [r7, #-53]
 80018ba:	f89d 2026 	ldrb.w	r2, [sp, #38]	; 0x26
 80018be:	f88d 2036 	strb.w	r2, [sp, #54]	; 0x36
 80018c2:	f8bd 2024 	ldrh.w	r2, [sp, #36]	; 0x24
 80018c6:	f8ad 2034 	strh.w	r2, [sp, #52]	; 0x34
 80018ca:	6008      	str	r0, [r1, #0]
 80018cc:	f817 0c35 	ldrb.w	r0, [r7, #-53]
 80018d0:	7108      	strb	r0, [r1, #4]
 80018d2:	f89d 0036 	ldrb.w	r0, [sp, #54]	; 0x36
 80018d6:	71c8      	strb	r0, [r1, #7]
 80018d8:	f8bd 0034 	ldrh.w	r0, [sp, #52]	; 0x34
 80018dc:	f8a1 0005 	strh.w	r0, [r1, #5]
 80018e0:	e7c0      	b.n	8001864 <_ZN16stm32f3xx_hal_v23rcc4CFGR10get_sysclk17hd24cbed6dbc98921E+0x88>
 80018e2:	9902      	ldr	r1, [sp, #8]
 80018e4:	9804      	ldr	r0, [sp, #16]
 80018e6:	9013      	str	r0, [sp, #76]	; 0x4c
 80018e8:	2000      	movs	r0, #0
 80018ea:	f88d 0020 	strb.w	r0, [sp, #32]
 80018ee:	2003      	movs	r0, #3
 80018f0:	f807 0c47 	strb.w	r0, [r7, #-71]
 80018f4:	f241 2000 	movw	r0, #4608	; 0x1200
 80018f8:	f2c0 007a 	movt	r0, #122	; 0x7a
 80018fc:	6008      	str	r0, [r1, #0]
 80018fe:	f89d 0020 	ldrb.w	r0, [sp, #32]
 8001902:	7108      	strb	r0, [r1, #4]
 8001904:	f817 0c45 	ldrb.w	r0, [r7, #-69]
 8001908:	71c8      	strb	r0, [r1, #7]
 800190a:	f837 0c47 	ldrh.w	r0, [r7, #-71]
 800190e:	f8a1 0005 	strh.w	r0, [r1, #5]
 8001912:	e7a7      	b.n	8001864 <_ZN16stm32f3xx_hal_v23rcc4CFGR10get_sysclk17hd24cbed6dbc98921E+0x88>
 8001914:	9902      	ldr	r1, [sp, #8]
 8001916:	9804      	ldr	r0, [sp, #16]
 8001918:	9018      	str	r0, [sp, #96]	; 0x60
 800191a:	9806      	ldr	r0, [sp, #24]
 800191c:	9019      	str	r0, [sp, #100]	; 0x64
 800191e:	2201      	movs	r2, #1
 8001920:	f88d 201c 	strb.w	r2, [sp, #28]
 8001924:	2203      	movs	r2, #3
 8001926:	f807 2c4b 	strb.w	r2, [r7, #-75]
 800192a:	6008      	str	r0, [r1, #0]
 800192c:	f89d 001c 	ldrb.w	r0, [sp, #28]
 8001930:	7108      	strb	r0, [r1, #4]
 8001932:	f817 0c49 	ldrb.w	r0, [r7, #-73]
 8001936:	71c8      	strb	r0, [r1, #7]
 8001938:	f837 0c4b 	ldrh.w	r0, [r7, #-75]
 800193c:	f8a1 0005 	strh.w	r0, [r1, #5]
 8001940:	e790      	b.n	8001864 <_ZN16stm32f3xx_hal_v23rcc4CFGR10get_sysclk17hd24cbed6dbc98921E+0x88>

08001942 <_ZN16stm32f3xx_hal_v23rcc4CFGR6freeze17h5374275a958d1cd2E>:
 8001942:	b5b0      	push	{r4, r5, r7, lr}
 8001944:	af02      	add	r7, sp, #8
 8001946:	b0fe      	sub	sp, #504	; 0x1f8
 8001948:	9213      	str	r2, [sp, #76]	; 0x4c
 800194a:	9115      	str	r1, [sp, #84]	; 0x54
 800194c:	9014      	str	r0, [sp, #80]	; 0x50
 800194e:	922b      	str	r2, [sp, #172]	; 0xac
 8001950:	a81a      	add	r0, sp, #104	; 0x68
 8001952:	f7ff ff43 	bl	80017dc <_ZN16stm32f3xx_hal_v23rcc4CFGR10get_sysclk17hd24cbed6dbc98921E>
 8001956:	9915      	ldr	r1, [sp, #84]	; 0x54
 8001958:	981a      	ldr	r0, [sp, #104]	; 0x68
 800195a:	9017      	str	r0, [sp, #92]	; 0x5c
 800195c:	f89d 006c 	ldrb.w	r0, [sp, #108]	; 0x6c
 8001960:	f88d 0063 	strb.w	r0, [sp, #99]	; 0x63
 8001964:	f89d 006f 	ldrb.w	r0, [sp, #111]	; 0x6f
 8001968:	f88d 0066 	strb.w	r0, [sp, #102]	; 0x66
 800196c:	f8bd 006d 	ldrh.w	r0, [sp, #109]	; 0x6d
 8001970:	f8ad 0064 	strh.w	r0, [sp, #100]	; 0x64
 8001974:	6888      	ldr	r0, [r1, #8]
 8001976:	68c9      	ldr	r1, [r1, #12]
 8001978:	2200      	movs	r2, #0
 800197a:	f88d 2073 	strb.w	r2, [sp, #115]	; 0x73
 800197e:	f89d 2073 	ldrb.w	r2, [sp, #115]	; 0x73
 8001982:	46ec      	mov	ip, sp
 8001984:	ab17      	add	r3, sp, #92	; 0x5c
 8001986:	f8cc 3000 	str.w	r3, [ip]
 800198a:	2301      	movs	r3, #1
 800198c:	f7ff fcab 	bl	80012e6 <_ZN4core6option15Option$LT$T$GT$6map_or17h9a1244551abbeafdE>
 8001990:	460a      	mov	r2, r1
 8001992:	9216      	str	r2, [sp, #88]	; 0x58
 8001994:	f88d 0072 	strb.w	r0, [sp, #114]	; 0x72
 8001998:	912c      	str	r1, [sp, #176]	; 0xb0
 800199a:	b169      	cbz	r1, 80019b8 <_ZN16stm32f3xx_hal_v23rcc4CFGR6freeze17h5374275a958d1cd2E+0x76>
 800199c:	e7ff      	b.n	800199e <_ZN16stm32f3xx_hal_v23rcc4CFGR6freeze17h5374275a958d1cd2E+0x5c>
 800199e:	9916      	ldr	r1, [sp, #88]	; 0x58
 80019a0:	9817      	ldr	r0, [sp, #92]	; 0x5c
 80019a2:	fbb0 f0f1 	udiv	r0, r0, r1
 80019a6:	901d      	str	r0, [sp, #116]	; 0x74
 80019a8:	981d      	ldr	r0, [sp, #116]	; 0x74
 80019aa:	f24a 2101 	movw	r1, #41473	; 0xa201
 80019ae:	f2c0 414a 	movt	r1, #1098	; 0x44a
 80019b2:	4288      	cmp	r0, r1
 80019b4:	d311      	bcc.n	80019da <_ZN16stm32f3xx_hal_v23rcc4CFGR6freeze17h5374275a958d1cd2E+0x98>
 80019b6:	e005      	b.n	80019c4 <_ZN16stm32f3xx_hal_v23rcc4CFGR6freeze17h5374275a958d1cd2E+0x82>
 80019b8:	f244 30ec 	movw	r0, #17388	; 0x43ec
 80019bc:	f6c0 0000 	movt	r0, #2048	; 0x800
 80019c0:	f001 fee4 	bl	800378c <_ZN4core9panicking11panic_const23panic_const_div_by_zero17h2a31fcd9fa76bd10E>
 80019c4:	f244 30fc 	movw	r0, #17404	; 0x43fc
 80019c8:	f6c0 0000 	movt	r0, #2048	; 0x800
 80019cc:	f244 4220 	movw	r2, #17440	; 0x4420
 80019d0:	f6c0 0200 	movt	r2, #2048	; 0x800
 80019d4:	2124      	movs	r1, #36	; 0x24
 80019d6:	f001 f934 	bl	8002c42 <_ZN4core9panicking5panic17h080ae1d68604d494E>
 80019da:	9915      	ldr	r1, [sp, #84]	; 0x54
 80019dc:	6908      	ldr	r0, [r1, #16]
 80019de:	6949      	ldr	r1, [r1, #20]
 80019e0:	2200      	movs	r2, #0
 80019e2:	f88d 207b 	strb.w	r2, [sp, #123]	; 0x7b
 80019e6:	f89d 207b 	ldrb.w	r2, [sp, #123]	; 0x7b
 80019ea:	46ec      	mov	ip, sp
 80019ec:	ab1d      	add	r3, sp, #116	; 0x74
 80019ee:	f8cc 3000 	str.w	r3, [ip]
 80019f2:	2301      	movs	r3, #1
 80019f4:	f7ff fc9f 	bl	8001336 <_ZN4core6option15Option$LT$T$GT$6map_or17he4c31f4cfd55b6e9E>
 80019f8:	f88d 0079 	strb.w	r0, [sp, #121]	; 0x79
 80019fc:	f88d 107a 	strb.w	r1, [sp, #122]	; 0x7a
 8001a00:	f89d 007a 	ldrb.w	r0, [sp, #122]	; 0x7a
 8001a04:	f88d 00c7 	strb.w	r0, [sp, #199]	; 0xc7
 8001a08:	4601      	mov	r1, r0
 8001a0a:	9112      	str	r1, [sp, #72]	; 0x48
 8001a0c:	b158      	cbz	r0, 8001a26 <_ZN16stm32f3xx_hal_v23rcc4CFGR6freeze17h5374275a958d1cd2E+0xe4>
 8001a0e:	e7ff      	b.n	8001a10 <_ZN16stm32f3xx_hal_v23rcc4CFGR6freeze17h5374275a958d1cd2E+0xce>
 8001a10:	9815      	ldr	r0, [sp, #84]	; 0x54
 8001a12:	9a12      	ldr	r2, [sp, #72]	; 0x48
 8001a14:	991d      	ldr	r1, [sp, #116]	; 0x74
 8001a16:	fbb1 f1f2 	udiv	r1, r1, r2
 8001a1a:	911f      	str	r1, [sp, #124]	; 0x7c
 8001a1c:	3010      	adds	r0, #16
 8001a1e:	f7ff fcb8 	bl	8001392 <_ZN4core6option15Option$LT$T$GT$7is_none17h182324c17d7d69d4E>
 8001a22:	b970      	cbnz	r0, 8001a42 <_ZN16stm32f3xx_hal_v23rcc4CFGR6freeze17h5374275a958d1cd2E+0x100>
 8001a24:	e005      	b.n	8001a32 <_ZN16stm32f3xx_hal_v23rcc4CFGR6freeze17h5374275a958d1cd2E+0xf0>
 8001a26:	f244 4030 	movw	r0, #17456	; 0x4430
 8001a2a:	f6c0 0000 	movt	r0, #2048	; 0x800
 8001a2e:	f001 fead 	bl	800378c <_ZN4core9panicking11panic_const23panic_const_div_by_zero17h2a31fcd9fa76bd10E>
 8001a32:	981f      	ldr	r0, [sp, #124]	; 0x7c
 8001a34:	f245 1101 	movw	r1, #20737	; 0x5101
 8001a38:	f2c0 2125 	movt	r1, #549	; 0x225
 8001a3c:	4288      	cmp	r0, r1
 8001a3e:	d331      	bcc.n	8001aa4 <_ZN16stm32f3xx_hal_v23rcc4CFGR6freeze17h5374275a958d1cd2E+0x162>
 8001a40:	e025      	b.n	8001a8e <_ZN16stm32f3xx_hal_v23rcc4CFGR6freeze17h5374275a958d1cd2E+0x14c>
 8001a42:	981f      	ldr	r0, [sp, #124]	; 0x7c
 8001a44:	f245 1101 	movw	r1, #20737	; 0x5101
 8001a48:	f2c0 2125 	movt	r1, #549	; 0x225
 8001a4c:	4288      	cmp	r0, r1
 8001a4e:	d3f0      	bcc.n	8001a32 <_ZN16stm32f3xx_hal_v23rcc4CFGR6freeze17h5374275a958d1cd2E+0xf0>
 8001a50:	e7ff      	b.n	8001a52 <_ZN16stm32f3xx_hal_v23rcc4CFGR6freeze17h5374275a958d1cd2E+0x110>
 8001a52:	2004      	movs	r0, #4
 8001a54:	f88d 0083 	strb.w	r0, [sp, #131]	; 0x83
 8001a58:	f89d 0083 	ldrb.w	r0, [sp, #131]	; 0x83
 8001a5c:	f88d 0079 	strb.w	r0, [sp, #121]	; 0x79
 8001a60:	2002      	movs	r0, #2
 8001a62:	f88d 007a 	strb.w	r0, [sp, #122]	; 0x7a
 8001a66:	f89d 007a 	ldrb.w	r0, [sp, #122]	; 0x7a
 8001a6a:	f88d 00c6 	strb.w	r0, [sp, #198]	; 0xc6
 8001a6e:	4601      	mov	r1, r0
 8001a70:	9111      	str	r1, [sp, #68]	; 0x44
 8001a72:	b130      	cbz	r0, 8001a82 <_ZN16stm32f3xx_hal_v23rcc4CFGR6freeze17h5374275a958d1cd2E+0x140>
 8001a74:	e7ff      	b.n	8001a76 <_ZN16stm32f3xx_hal_v23rcc4CFGR6freeze17h5374275a958d1cd2E+0x134>
 8001a76:	9911      	ldr	r1, [sp, #68]	; 0x44
 8001a78:	981d      	ldr	r0, [sp, #116]	; 0x74
 8001a7a:	fbb0 f0f1 	udiv	r0, r0, r1
 8001a7e:	901f      	str	r0, [sp, #124]	; 0x7c
 8001a80:	e7d7      	b.n	8001a32 <_ZN16stm32f3xx_hal_v23rcc4CFGR6freeze17h5374275a958d1cd2E+0xf0>
 8001a82:	f244 4040 	movw	r0, #17472	; 0x4440
 8001a86:	f6c0 0000 	movt	r0, #2048	; 0x800
 8001a8a:	f001 fe7f 	bl	800378c <_ZN4core9panicking11panic_const23panic_const_div_by_zero17h2a31fcd9fa76bd10E>
 8001a8e:	f244 4050 	movw	r0, #17488	; 0x4450
 8001a92:	f6c0 0000 	movt	r0, #2048	; 0x800
 8001a96:	f244 4278 	movw	r2, #17528	; 0x4478
 8001a9a:	f6c0 0200 	movt	r2, #2048	; 0x800
 8001a9e:	2125      	movs	r1, #37	; 0x25
 8001aa0:	f001 f8cf 	bl	8002c42 <_ZN4core9panicking5panic17h080ae1d68604d494E>
 8001aa4:	9915      	ldr	r1, [sp, #84]	; 0x54
 8001aa6:	6988      	ldr	r0, [r1, #24]
 8001aa8:	69c9      	ldr	r1, [r1, #28]
 8001aaa:	2200      	movs	r2, #0
 8001aac:	f88d 2085 	strb.w	r2, [sp, #133]	; 0x85
 8001ab0:	f89d 2085 	ldrb.w	r2, [sp, #133]	; 0x85
 8001ab4:	46ec      	mov	ip, sp
 8001ab6:	ab1d      	add	r3, sp, #116	; 0x74
 8001ab8:	f8cc 3000 	str.w	r3, [ip]
 8001abc:	2301      	movs	r3, #1
 8001abe:	f7ff fbe4 	bl	800128a <_ZN4core6option15Option$LT$T$GT$6map_or17h0bcd8a97a5403012E>
 8001ac2:	460a      	mov	r2, r1
 8001ac4:	920f      	str	r2, [sp, #60]	; 0x3c
 8001ac6:	f88d 0084 	strb.w	r0, [sp, #132]	; 0x84
 8001aca:	f88d 10b7 	strb.w	r1, [sp, #183]	; 0xb7
 8001ace:	f88d 10c5 	strb.w	r1, [sp, #197]	; 0xc5
 8001ad2:	b2c8      	uxtb	r0, r1
 8001ad4:	4601      	mov	r1, r0
 8001ad6:	9110      	str	r1, [sp, #64]	; 0x40
 8001ad8:	b170      	cbz	r0, 8001af8 <_ZN16stm32f3xx_hal_v23rcc4CFGR6freeze17h5374275a958d1cd2E+0x1b6>
 8001ada:	e7ff      	b.n	8001adc <_ZN16stm32f3xx_hal_v23rcc4CFGR6freeze17h5374275a958d1cd2E+0x19a>
 8001adc:	9910      	ldr	r1, [sp, #64]	; 0x40
 8001ade:	981d      	ldr	r0, [sp, #116]	; 0x74
 8001ae0:	fbb0 f0f1 	udiv	r0, r0, r1
 8001ae4:	4601      	mov	r1, r0
 8001ae6:	910e      	str	r1, [sp, #56]	; 0x38
 8001ae8:	902e      	str	r0, [sp, #184]	; 0xb8
 8001aea:	f24a 2101 	movw	r1, #41473	; 0xa201
 8001aee:	f2c0 414a 	movt	r1, #1098	; 0x44a
 8001af2:	4288      	cmp	r0, r1
 8001af4:	d311      	bcc.n	8001b1a <_ZN16stm32f3xx_hal_v23rcc4CFGR6freeze17h5374275a958d1cd2E+0x1d8>
 8001af6:	e005      	b.n	8001b04 <_ZN16stm32f3xx_hal_v23rcc4CFGR6freeze17h5374275a958d1cd2E+0x1c2>
 8001af8:	f244 4088 	movw	r0, #17544	; 0x4488
 8001afc:	f6c0 0000 	movt	r0, #2048	; 0x800
 8001b00:	f001 fe44 	bl	800378c <_ZN4core9panicking11panic_const23panic_const_div_by_zero17h2a31fcd9fa76bd10E>
 8001b04:	f244 4098 	movw	r0, #17560	; 0x4498
 8001b08:	f6c0 0000 	movt	r0, #2048	; 0x800
 8001b0c:	f244 42c0 	movw	r2, #17600	; 0x44c0
 8001b10:	f6c0 0200 	movt	r2, #2048	; 0x800
 8001b14:	2125      	movs	r1, #37	; 0x25
 8001b16:	f001 f894 	bl	8002c42 <_ZN4core9panicking5panic17h080ae1d68604d494E>
 8001b1a:	9813      	ldr	r0, [sp, #76]	; 0x4c
 8001b1c:	f7ff fc6f 	bl	80013fe <_ZN16stm32f3xx_hal_v25flash3ACR3acr17ha134d3504aec9ccbE>
 8001b20:	900c      	str	r0, [sp, #48]	; 0x30
 8001b22:	9043      	str	r0, [sp, #268]	; 0x10c
 8001b24:	a91d      	add	r1, sp, #116	; 0x74
 8001b26:	910b      	str	r1, [sp, #44]	; 0x2c
 8001b28:	9144      	str	r1, [sp, #272]	; 0x110
 8001b2a:	9046      	str	r0, [sp, #280]	; 0x118
 8001b2c:	9047      	str	r0, [sp, #284]	; 0x11c
 8001b2e:	f000 feb6 	bl	800289e <_ZN4core3ptr13read_volatile17h6d6580fa05e6f41aE>
 8001b32:	4601      	mov	r1, r0
 8001b34:	980b      	ldr	r0, [sp, #44]	; 0x2c
 8001b36:	9145      	str	r1, [sp, #276]	; 0x114
 8001b38:	9141      	str	r1, [sp, #260]	; 0x104
 8001b3a:	9142      	str	r1, [sp, #264]	; 0x108
 8001b3c:	a941      	add	r1, sp, #260	; 0x104
 8001b3e:	aa42      	add	r2, sp, #264	; 0x108
 8001b40:	f000 fb03 	bl	800214a <_ZN16stm32f3xx_hal_v23rcc4CFGR6freeze28_$u7b$$u7b$closure$u7d$$u7d$17he6d90a89d4fe4907E>
 8001b44:	4601      	mov	r1, r0
 8001b46:	980c      	ldr	r0, [sp, #48]	; 0x30
 8001b48:	6809      	ldr	r1, [r1, #0]
 8001b4a:	9048      	str	r0, [sp, #288]	; 0x120
 8001b4c:	9149      	str	r1, [sp, #292]	; 0x124
 8001b4e:	904a      	str	r0, [sp, #296]	; 0x128
 8001b50:	f000 ff0a 	bl	8002968 <_ZN4core3ptr14write_volatile17ha91faba4b6935fe1E>
 8001b54:	9815      	ldr	r0, [sp, #84]	; 0x54
 8001b56:	6801      	ldr	r1, [r0, #0]
 8001b58:	6842      	ldr	r2, [r0, #4]
 8001b5a:	9b1f      	ldr	r3, [sp, #124]	; 0x7c
 8001b5c:	9817      	ldr	r0, [sp, #92]	; 0x5c
 8001b5e:	46ee      	mov	lr, sp
 8001b60:	f10d 0c64 	add.w	ip, sp, #100	; 0x64
 8001b64:	f8ce c000 	str.w	ip, [lr]
 8001b68:	f7ff fa72 	bl	8001050 <_ZN16stm32f3xx_hal_v23rcc12usb_clocking8is_valid17h719e3208fcc83206E>
 8001b6c:	4602      	mov	r2, r0
 8001b6e:	9815      	ldr	r0, [sp, #84]	; 0x54
 8001b70:	460b      	mov	r3, r1
 8001b72:	930d      	str	r3, [sp, #52]	; 0x34
 8001b74:	f002 0201 	and.w	r2, r2, #1
 8001b78:	f88d 2086 	strb.w	r2, [sp, #134]	; 0x86
 8001b7c:	f001 0101 	and.w	r1, r1, #1
 8001b80:	f88d 10bf 	strb.w	r1, [sp, #191]	; 0xbf
 8001b84:	f241 0100 	movw	r1, #4096	; 0x1000
 8001b88:	f2c4 0102 	movt	r1, #16386	; 0x4002
 8001b8c:	9130      	str	r1, [sp, #192]	; 0xc0
 8001b8e:	f000 fcfb 	bl	8002588 <_ZN4core6option15Option$LT$T$GT$7is_some17h2e457d7a010802c4E>
 8001b92:	b928      	cbnz	r0, 8001ba0 <_ZN16stm32f3xx_hal_v23rcc4CFGR6freeze17h5374275a958d1cd2E+0x25e>
 8001b94:	e7ff      	b.n	8001b96 <_ZN16stm32f3xx_hal_v23rcc4CFGR6freeze17h5374275a958d1cd2E+0x254>
 8001b96:	f89d 0064 	ldrb.w	r0, [sp, #100]	; 0x64
 8001b9a:	2803      	cmp	r0, #3
 8001b9c:	d14d      	bne.n	8001c3a <_ZN16stm32f3xx_hal_v23rcc4CFGR6freeze17h5374275a958d1cd2E+0x2f8>
 8001b9e:	e078      	b.n	8001c92 <_ZN16stm32f3xx_hal_v23rcc4CFGR6freeze17h5374275a958d1cd2E+0x350>
 8001ba0:	9915      	ldr	r1, [sp, #84]	; 0x54
 8001ba2:	f241 0000 	movw	r0, #4096	; 0x1000
 8001ba6:	f2c4 0002 	movt	r0, #16386	; 0x4002
 8001baa:	900a      	str	r0, [sp, #40]	; 0x28
 8001bac:	9061      	str	r0, [sp, #388]	; 0x184
 8001bae:	9162      	str	r1, [sp, #392]	; 0x188
 8001bb0:	9064      	str	r0, [sp, #400]	; 0x190
 8001bb2:	9065      	str	r0, [sp, #404]	; 0x194
 8001bb4:	f000 fe73 	bl	800289e <_ZN4core3ptr13read_volatile17h6d6580fa05e6f41aE>
 8001bb8:	4601      	mov	r1, r0
 8001bba:	9815      	ldr	r0, [sp, #84]	; 0x54
 8001bbc:	9163      	str	r1, [sp, #396]	; 0x18c
 8001bbe:	915f      	str	r1, [sp, #380]	; 0x17c
 8001bc0:	9160      	str	r1, [sp, #384]	; 0x180
 8001bc2:	a95f      	add	r1, sp, #380	; 0x17c
 8001bc4:	aa60      	add	r2, sp, #384	; 0x180
 8001bc6:	f000 fb36 	bl	8002236 <_ZN16stm32f3xx_hal_v23rcc4CFGR6freeze28_$u7b$$u7b$closure$u7d$$u7d$17h48e1952120d483c8E>
 8001bca:	4601      	mov	r1, r0
 8001bcc:	980a      	ldr	r0, [sp, #40]	; 0x28
 8001bce:	6809      	ldr	r1, [r1, #0]
 8001bd0:	9066      	str	r0, [sp, #408]	; 0x198
 8001bd2:	9167      	str	r1, [sp, #412]	; 0x19c
 8001bd4:	9068      	str	r0, [sp, #416]	; 0x1a0
 8001bd6:	f000 fec7 	bl	8002968 <_ZN4core3ptr14write_volatile17ha91faba4b6935fe1E>
 8001bda:	e7ff      	b.n	8001bdc <_ZN16stm32f3xx_hal_v23rcc4CFGR6freeze17h5374275a958d1cd2E+0x29a>
 8001bdc:	f241 0000 	movw	r0, #4096	; 0x1000
 8001be0:	f2c4 0002 	movt	r0, #16386	; 0x4002
 8001be4:	9035      	str	r0, [sp, #212]	; 0xd4
 8001be6:	9036      	str	r0, [sp, #216]	; 0xd8
 8001be8:	9037      	str	r0, [sp, #220]	; 0xdc
 8001bea:	f000 fe58 	bl	800289e <_ZN4core3ptr13read_volatile17h6d6580fa05e6f41aE>
 8001bee:	9022      	str	r0, [sp, #136]	; 0x88
 8001bf0:	a822      	add	r0, sp, #136	; 0x88
 8001bf2:	9072      	str	r0, [sp, #456]	; 0x1c8
 8001bf4:	9822      	ldr	r0, [sp, #136]	; 0x88
 8001bf6:	f3c0 4040 	ubfx	r0, r0, #17, #1
 8001bfa:	f807 0c31 	strb.w	r0, [r7, #-49]
 8001bfe:	f88d 0087 	strb.w	r0, [sp, #135]	; 0x87
 8001c02:	f10d 0087 	add.w	r0, sp, #135	; 0x87
 8001c06:	9009      	str	r0, [sp, #36]	; 0x24
 8001c08:	9077      	str	r0, [sp, #476]	; 0x1dc
 8001c0a:	9079      	str	r0, [sp, #484]	; 0x1e4
 8001c0c:	f244 0024 	movw	r0, #16420	; 0x4024
 8001c10:	f6c0 0000 	movt	r0, #2048	; 0x800
 8001c14:	907a      	str	r0, [sp, #488]	; 0x1e8
 8001c16:	f244 2138 	movw	r1, #16952	; 0x4238
 8001c1a:	f6c0 0100 	movt	r1, #2048	; 0x800
 8001c1e:	2000      	movs	r0, #0
 8001c20:	f7ff fac1 	bl	80011a6 <_ZN50_$LT$T$u20$as$u20$core..convert..Into$LT$U$GT$$GT$4into17h7447806a74fb38ecE>
 8001c24:	4601      	mov	r1, r0
 8001c26:	9809      	ldr	r0, [sp, #36]	; 0x24
 8001c28:	f807 1c1d 	strb.w	r1, [r7, #-29]
 8001c2c:	f1a7 011d 	sub.w	r1, r7, #29
 8001c30:	f7ff fb0d 	bl	800124e <_ZN4core3cmp5impls55_$LT$impl$u20$core..cmp..PartialEq$u20$for$u20$bool$GT$2eq17h1af9d3ce154a7d88E>
 8001c34:	2800      	cmp	r0, #0
 8001c36:	d1d1      	bne.n	8001bdc <_ZN16stm32f3xx_hal_v23rcc4CFGR6freeze17h5374275a958d1cd2E+0x29a>
 8001c38:	e7ad      	b.n	8001b96 <_ZN16stm32f3xx_hal_v23rcc4CFGR6freeze17h5374275a958d1cd2E+0x254>
 8001c3a:	f89d 0066 	ldrb.w	r0, [sp, #102]	; 0x66
 8001c3e:	f88d 0090 	strb.w	r0, [sp, #144]	; 0x90
 8001c42:	f8bd 0064 	ldrh.w	r0, [sp, #100]	; 0x64
 8001c46:	f8ad 008e 	strh.w	r0, [sp, #142]	; 0x8e
 8001c4a:	f241 0004 	movw	r0, #4100	; 0x1004
 8001c4e:	f2c4 0002 	movt	r0, #16386	; 0x4002
 8001c52:	9008      	str	r0, [sp, #32]
 8001c54:	904d      	str	r0, [sp, #308]	; 0x134
 8001c56:	f10d 018e 	add.w	r1, sp, #142	; 0x8e
 8001c5a:	9107      	str	r1, [sp, #28]
 8001c5c:	914e      	str	r1, [sp, #312]	; 0x138
 8001c5e:	9050      	str	r0, [sp, #320]	; 0x140
 8001c60:	9051      	str	r0, [sp, #324]	; 0x144
 8001c62:	f000 fe1c 	bl	800289e <_ZN4core3ptr13read_volatile17h6d6580fa05e6f41aE>
 8001c66:	4601      	mov	r1, r0
 8001c68:	9807      	ldr	r0, [sp, #28]
 8001c6a:	914f      	str	r1, [sp, #316]	; 0x13c
 8001c6c:	914b      	str	r1, [sp, #300]	; 0x12c
 8001c6e:	914c      	str	r1, [sp, #304]	; 0x130
 8001c70:	a94b      	add	r1, sp, #300	; 0x12c
 8001c72:	aa4c      	add	r2, sp, #304	; 0x130
 8001c74:	f000 fb27 	bl	80022c6 <_ZN16stm32f3xx_hal_v23rcc4CFGR6freeze28_$u7b$$u7b$closure$u7d$$u7d$17heac661de2574f00fE>
 8001c78:	4601      	mov	r1, r0
 8001c7a:	9808      	ldr	r0, [sp, #32]
 8001c7c:	6809      	ldr	r1, [r1, #0]
 8001c7e:	9052      	str	r0, [sp, #328]	; 0x148
 8001c80:	9153      	str	r1, [sp, #332]	; 0x14c
 8001c82:	9054      	str	r0, [sp, #336]	; 0x150
 8001c84:	f000 fe70 	bl	8002968 <_ZN4core3ptr14write_volatile17ha91faba4b6935fe1E>
 8001c88:	f89d 0090 	ldrb.w	r0, [sp, #144]	; 0x90
 8001c8c:	2810      	cmp	r0, #16
 8001c8e:	d13f      	bne.n	8001d10 <_ZN16stm32f3xx_hal_v23rcc4CFGR6freeze17h5374275a958d1cd2E+0x3ce>
 8001c90:	e062      	b.n	8001d58 <_ZN16stm32f3xx_hal_v23rcc4CFGR6freeze17h5374275a958d1cd2E+0x416>
 8001c92:	f10d 0086 	add.w	r0, sp, #134	; 0x86
 8001c96:	9026      	str	r0, [sp, #152]	; 0x98
 8001c98:	a821      	add	r0, sp, #132	; 0x84
 8001c9a:	9027      	str	r0, [sp, #156]	; 0x9c
 8001c9c:	f10d 0079 	add.w	r0, sp, #121	; 0x79
 8001ca0:	9028      	str	r0, [sp, #160]	; 0xa0
 8001ca2:	f10d 0072 	add.w	r0, sp, #114	; 0x72
 8001ca6:	9029      	str	r0, [sp, #164]	; 0xa4
 8001ca8:	f10d 0063 	add.w	r0, sp, #99	; 0x63
 8001cac:	902a      	str	r0, [sp, #168]	; 0xa8
 8001cae:	f241 0004 	movw	r0, #4100	; 0x1004
 8001cb2:	f2c4 0002 	movt	r0, #16386	; 0x4002
 8001cb6:	9006      	str	r0, [sp, #24]
 8001cb8:	906b      	str	r0, [sp, #428]	; 0x1ac
 8001cba:	906d      	str	r0, [sp, #436]	; 0x1b4
 8001cbc:	906e      	str	r0, [sp, #440]	; 0x1b8
 8001cbe:	f000 fdee 	bl	800289e <_ZN4core3ptr13read_volatile17h6d6580fa05e6f41aE>
 8001cc2:	906c      	str	r0, [sp, #432]	; 0x1b0
 8001cc4:	9069      	str	r0, [sp, #420]	; 0x1a4
 8001cc6:	906a      	str	r0, [sp, #424]	; 0x1a8
 8001cc8:	a826      	add	r0, sp, #152	; 0x98
 8001cca:	a969      	add	r1, sp, #420	; 0x1a4
 8001ccc:	aa6a      	add	r2, sp, #424	; 0x1a8
 8001cce:	f000 fb81 	bl	80023d4 <_ZN16stm32f3xx_hal_v23rcc4CFGR6freeze28_$u7b$$u7b$closure$u7d$$u7d$17h680f6662b217a137E>
 8001cd2:	4601      	mov	r1, r0
 8001cd4:	9806      	ldr	r0, [sp, #24]
 8001cd6:	6809      	ldr	r1, [r1, #0]
 8001cd8:	906f      	str	r0, [sp, #444]	; 0x1bc
 8001cda:	9170      	str	r1, [sp, #448]	; 0x1c0
 8001cdc:	9071      	str	r0, [sp, #452]	; 0x1c4
 8001cde:	f000 fe43 	bl	8002968 <_ZN4core3ptr14write_volatile17ha91faba4b6935fe1E>
 8001ce2:	9b0f      	ldr	r3, [sp, #60]	; 0x3c
 8001ce4:	980d      	ldr	r0, [sp, #52]	; 0x34
 8001ce6:	9914      	ldr	r1, [sp, #80]	; 0x50
 8001ce8:	f8dd e038 	ldr.w	lr, [sp, #56]	; 0x38
 8001cec:	9d1d      	ldr	r5, [sp, #116]	; 0x74
 8001cee:	9c1f      	ldr	r4, [sp, #124]	; 0x7c
 8001cf0:	f89d c07a 	ldrb.w	ip, [sp, #122]	; 0x7a
 8001cf4:	9a17      	ldr	r2, [sp, #92]	; 0x5c
 8001cf6:	600d      	str	r5, [r1, #0]
 8001cf8:	604c      	str	r4, [r1, #4]
 8001cfa:	f8c1 e008 	str.w	lr, [r1, #8]
 8001cfe:	f881 c010 	strb.w	ip, [r1, #16]
 8001d02:	744b      	strb	r3, [r1, #17]
 8001d04:	60ca      	str	r2, [r1, #12]
 8001d06:	f000 0001 	and.w	r0, r0, #1
 8001d0a:	7488      	strb	r0, [r1, #18]
 8001d0c:	b07e      	add	sp, #504	; 0x1f8
 8001d0e:	bdb0      	pop	{r4, r5, r7, pc}
 8001d10:	f89d 0090 	ldrb.w	r0, [sp, #144]	; 0x90
 8001d14:	f88d 0092 	strb.w	r0, [sp, #146]	; 0x92
 8001d18:	f241 002c 	movw	r0, #4140	; 0x102c
 8001d1c:	f2c4 0002 	movt	r0, #16386	; 0x4002
 8001d20:	9005      	str	r0, [sp, #20]
 8001d22:	9057      	str	r0, [sp, #348]	; 0x15c
 8001d24:	f10d 0192 	add.w	r1, sp, #146	; 0x92
 8001d28:	9104      	str	r1, [sp, #16]
 8001d2a:	9158      	str	r1, [sp, #352]	; 0x160
 8001d2c:	905a      	str	r0, [sp, #360]	; 0x168
 8001d2e:	905b      	str	r0, [sp, #364]	; 0x16c
 8001d30:	f000 fdb5 	bl	800289e <_ZN4core3ptr13read_volatile17h6d6580fa05e6f41aE>
 8001d34:	4601      	mov	r1, r0
 8001d36:	9804      	ldr	r0, [sp, #16]
 8001d38:	9159      	str	r1, [sp, #356]	; 0x164
 8001d3a:	9155      	str	r1, [sp, #340]	; 0x154
 8001d3c:	9156      	str	r1, [sp, #344]	; 0x158
 8001d3e:	a955      	add	r1, sp, #340	; 0x154
 8001d40:	aa56      	add	r2, sp, #344	; 0x158
 8001d42:	f000 fb00 	bl	8002346 <_ZN16stm32f3xx_hal_v23rcc4CFGR6freeze28_$u7b$$u7b$closure$u7d$$u7d$17h4c40d108d0ac62e8E>
 8001d46:	4601      	mov	r1, r0
 8001d48:	9805      	ldr	r0, [sp, #20]
 8001d4a:	6809      	ldr	r1, [r1, #0]
 8001d4c:	905c      	str	r0, [sp, #368]	; 0x170
 8001d4e:	915d      	str	r1, [sp, #372]	; 0x174
 8001d50:	905e      	str	r0, [sp, #376]	; 0x178
 8001d52:	f000 fe09 	bl	8002968 <_ZN4core3ptr14write_volatile17ha91faba4b6935fe1E>
 8001d56:	e7ff      	b.n	8001d58 <_ZN16stm32f3xx_hal_v23rcc4CFGR6freeze17h5374275a958d1cd2E+0x416>
 8001d58:	f241 0000 	movw	r0, #4096	; 0x1000
 8001d5c:	f2c4 0002 	movt	r0, #16386	; 0x4002
 8001d60:	9003      	str	r0, [sp, #12]
 8001d62:	903a      	str	r0, [sp, #232]	; 0xe8
 8001d64:	903c      	str	r0, [sp, #240]	; 0xf0
 8001d66:	903d      	str	r0, [sp, #244]	; 0xf4
 8001d68:	f000 fd99 	bl	800289e <_ZN4core3ptr13read_volatile17h6d6580fa05e6f41aE>
 8001d6c:	903b      	str	r0, [sp, #236]	; 0xec
 8001d6e:	9038      	str	r0, [sp, #224]	; 0xe0
 8001d70:	9039      	str	r0, [sp, #228]	; 0xe4
 8001d72:	a838      	add	r0, sp, #224	; 0xe0
 8001d74:	a939      	add	r1, sp, #228	; 0xe4
 8001d76:	f000 fb06 	bl	8002386 <_ZN16stm32f3xx_hal_v23rcc4CFGR6freeze28_$u7b$$u7b$closure$u7d$$u7d$17hf3d4cee1ba7335a8E>
 8001d7a:	4601      	mov	r1, r0
 8001d7c:	9803      	ldr	r0, [sp, #12]
 8001d7e:	6809      	ldr	r1, [r1, #0]
 8001d80:	903e      	str	r0, [sp, #248]	; 0xf8
 8001d82:	913f      	str	r1, [sp, #252]	; 0xfc
 8001d84:	9040      	str	r0, [sp, #256]	; 0x100
 8001d86:	f000 fdef 	bl	8002968 <_ZN4core3ptr14write_volatile17ha91faba4b6935fe1E>
 8001d8a:	e7ff      	b.n	8001d8c <_ZN16stm32f3xx_hal_v23rcc4CFGR6freeze17h5374275a958d1cd2E+0x44a>
 8001d8c:	f241 0000 	movw	r0, #4096	; 0x1000
 8001d90:	f2c4 0002 	movt	r0, #16386	; 0x4002
 8001d94:	9032      	str	r0, [sp, #200]	; 0xc8
 8001d96:	9033      	str	r0, [sp, #204]	; 0xcc
 8001d98:	9034      	str	r0, [sp, #208]	; 0xd0
 8001d9a:	f000 fd80 	bl	800289e <_ZN4core3ptr13read_volatile17h6d6580fa05e6f41aE>
 8001d9e:	9025      	str	r0, [sp, #148]	; 0x94
 8001da0:	a825      	add	r0, sp, #148	; 0x94
 8001da2:	9074      	str	r0, [sp, #464]	; 0x1d0
 8001da4:	9825      	ldr	r0, [sp, #148]	; 0x94
 8001da6:	f3c0 6040 	ubfx	r0, r0, #25, #1
 8001daa:	f807 0c29 	strb.w	r0, [r7, #-41]
 8001dae:	f88d 0093 	strb.w	r0, [sp, #147]	; 0x93
 8001db2:	f10d 0093 	add.w	r0, sp, #147	; 0x93
 8001db6:	9002      	str	r0, [sp, #8]
 8001db8:	9076      	str	r0, [sp, #472]	; 0x1d8
 8001dba:	907c      	str	r0, [sp, #496]	; 0x1f0
 8001dbc:	f244 0024 	movw	r0, #16420	; 0x4024
 8001dc0:	f6c0 0000 	movt	r0, #2048	; 0x800
 8001dc4:	907d      	str	r0, [sp, #500]	; 0x1f4
 8001dc6:	f244 2138 	movw	r1, #16952	; 0x4238
 8001dca:	f6c0 0100 	movt	r1, #2048	; 0x800
 8001dce:	2000      	movs	r0, #0
 8001dd0:	f7ff f9e9 	bl	80011a6 <_ZN50_$LT$T$u20$as$u20$core..convert..Into$LT$U$GT$$GT$4into17h7447806a74fb38ecE>
 8001dd4:	4601      	mov	r1, r0
 8001dd6:	9802      	ldr	r0, [sp, #8]
 8001dd8:	f807 1c11 	strb.w	r1, [r7, #-17]
 8001ddc:	f1a7 0111 	sub.w	r1, r7, #17
 8001de0:	f7ff fa35 	bl	800124e <_ZN4core3cmp5impls55_$LT$impl$u20$core..cmp..PartialEq$u20$for$u20$bool$GT$2eq17h1af9d3ce154a7d88E>
 8001de4:	2800      	cmp	r0, #0
 8001de6:	d1d1      	bne.n	8001d8c <_ZN16stm32f3xx_hal_v23rcc4CFGR6freeze17h5374275a958d1cd2E+0x44a>
 8001de8:	e753      	b.n	8001c92 <_ZN16stm32f3xx_hal_v23rcc4CFGR6freeze17h5374275a958d1cd2E+0x350>

08001dea <_ZN16stm32f3xx_hal_v23rcc4CFGR6freeze28_$u7b$$u7b$closure$u7d$$u7d$17hcdd4e0be3c42e2a1E>:
 8001dea:	b580      	push	{r7, lr}
 8001dec:	466f      	mov	r7, sp
 8001dee:	b08a      	sub	sp, #40	; 0x28
 8001df0:	9101      	str	r1, [sp, #4]
 8001df2:	9003      	str	r0, [sp, #12]
 8001df4:	9109      	str	r1, [sp, #36]	; 0x24
 8001df6:	9803      	ldr	r0, [sp, #12]
 8001df8:	6800      	ldr	r0, [r0, #0]
 8001dfa:	9002      	str	r0, [sp, #8]
 8001dfc:	b181      	cbz	r1, 8001e20 <_ZN16stm32f3xx_hal_v23rcc4CFGR6freeze28_$u7b$$u7b$closure$u7d$$u7d$17hcdd4e0be3c42e2a1E+0x36>
 8001dfe:	e7ff      	b.n	8001e00 <_ZN16stm32f3xx_hal_v23rcc4CFGR6freeze28_$u7b$$u7b$closure$u7d$$u7d$17hcdd4e0be3c42e2a1E+0x16>
 8001e00:	9802      	ldr	r0, [sp, #8]
 8001e02:	9901      	ldr	r1, [sp, #4]
 8001e04:	fbb0 f0f1 	udiv	r0, r0, r1
 8001e08:	4601      	mov	r1, r0
 8001e0a:	9100      	str	r1, [sp, #0]
 8001e0c:	b190      	cbz	r0, 8001e34 <_ZN16stm32f3xx_hal_v23rcc4CFGR6freeze28_$u7b$$u7b$closure$u7d$$u7d$17hcdd4e0be3c42e2a1E+0x4a>
 8001e0e:	e7ff      	b.n	8001e10 <_ZN16stm32f3xx_hal_v23rcc4CFGR6freeze28_$u7b$$u7b$closure$u7d$$u7d$17hcdd4e0be3c42e2a1E+0x26>
 8001e10:	9800      	ldr	r0, [sp, #0]
 8001e12:	2801      	cmp	r0, #1
 8001e14:	d019      	beq.n	8001e4a <_ZN16stm32f3xx_hal_v23rcc4CFGR6freeze28_$u7b$$u7b$closure$u7d$$u7d$17hcdd4e0be3c42e2a1E+0x60>
 8001e16:	e7ff      	b.n	8001e18 <_ZN16stm32f3xx_hal_v23rcc4CFGR6freeze28_$u7b$$u7b$closure$u7d$$u7d$17hcdd4e0be3c42e2a1E+0x2e>
 8001e18:	9800      	ldr	r0, [sp, #0]
 8001e1a:	2802      	cmp	r0, #2
 8001e1c:	d01f      	beq.n	8001e5e <_ZN16stm32f3xx_hal_v23rcc4CFGR6freeze28_$u7b$$u7b$closure$u7d$$u7d$17hcdd4e0be3c42e2a1E+0x74>
 8001e1e:	e005      	b.n	8001e2c <_ZN16stm32f3xx_hal_v23rcc4CFGR6freeze28_$u7b$$u7b$closure$u7d$$u7d$17hcdd4e0be3c42e2a1E+0x42>
 8001e20:	f244 40d0 	movw	r0, #17616	; 0x44d0
 8001e24:	f6c0 0000 	movt	r0, #2048	; 0x800
 8001e28:	f001 fcb0 	bl	800378c <_ZN4core9panicking11panic_const23panic_const_div_by_zero17h2a31fcd9fa76bd10E>
 8001e2c:	9800      	ldr	r0, [sp, #0]
 8001e2e:	2802      	cmp	r0, #2
 8001e30:	d828      	bhi.n	8001e84 <_ZN16stm32f3xx_hal_v23rcc4CFGR6freeze28_$u7b$$u7b$closure$u7d$$u7d$17hcdd4e0be3c42e2a1E+0x9a>
 8001e32:	e023      	b.n	8001e7c <_ZN16stm32f3xx_hal_v23rcc4CFGR6freeze28_$u7b$$u7b$closure$u7d$$u7d$17hcdd4e0be3c42e2a1E+0x92>
 8001e34:	f244 20b8 	movw	r0, #17080	; 0x42b8
 8001e38:	f6c0 0000 	movt	r0, #2048	; 0x800
 8001e3c:	f244 42e0 	movw	r2, #17632	; 0x44e0
 8001e40:	f6c0 0200 	movt	r2, #2048	; 0x800
 8001e44:	2128      	movs	r1, #40	; 0x28
 8001e46:	f000 fefc 	bl	8002c42 <_ZN4core9panicking5panic17h080ae1d68604d494E>
 8001e4a:	2000      	movs	r0, #0
 8001e4c:	f807 0c0d 	strb.w	r0, [r7, #-13]
 8001e50:	f817 0c0d 	ldrb.w	r0, [r7, #-13]
 8001e54:	f88d 0010 	strb.w	r0, [sp, #16]
 8001e58:	2001      	movs	r0, #1
 8001e5a:	9005      	str	r0, [sp, #20]
 8001e5c:	e009      	b.n	8001e72 <_ZN16stm32f3xx_hal_v23rcc4CFGR6freeze28_$u7b$$u7b$closure$u7d$$u7d$17hcdd4e0be3c42e2a1E+0x88>
 8001e5e:	2008      	movs	r0, #8
 8001e60:	f88d 001c 	strb.w	r0, [sp, #28]
 8001e64:	f89d 001c 	ldrb.w	r0, [sp, #28]
 8001e68:	f88d 0010 	strb.w	r0, [sp, #16]
 8001e6c:	2002      	movs	r0, #2
 8001e6e:	9005      	str	r0, [sp, #20]
 8001e70:	e7ff      	b.n	8001e72 <_ZN16stm32f3xx_hal_v23rcc4CFGR6freeze28_$u7b$$u7b$closure$u7d$$u7d$17hcdd4e0be3c42e2a1E+0x88>
 8001e72:	9905      	ldr	r1, [sp, #20]
 8001e74:	f89d 0010 	ldrb.w	r0, [sp, #16]
 8001e78:	b00a      	add	sp, #40	; 0x28
 8001e7a:	bd80      	pop	{r7, pc}
 8001e7c:	9800      	ldr	r0, [sp, #0]
 8001e7e:	2805      	cmp	r0, #5
 8001e80:	d812      	bhi.n	8001ea8 <_ZN16stm32f3xx_hal_v23rcc4CFGR6freeze28_$u7b$$u7b$closure$u7d$$u7d$17hcdd4e0be3c42e2a1E+0xbe>
 8001e82:	e00d      	b.n	8001ea0 <_ZN16stm32f3xx_hal_v23rcc4CFGR6freeze28_$u7b$$u7b$closure$u7d$$u7d$17hcdd4e0be3c42e2a1E+0xb6>
 8001e84:	9800      	ldr	r0, [sp, #0]
 8001e86:	2805      	cmp	r0, #5
 8001e88:	d8f8      	bhi.n	8001e7c <_ZN16stm32f3xx_hal_v23rcc4CFGR6freeze28_$u7b$$u7b$closure$u7d$$u7d$17hcdd4e0be3c42e2a1E+0x92>
 8001e8a:	e7ff      	b.n	8001e8c <_ZN16stm32f3xx_hal_v23rcc4CFGR6freeze28_$u7b$$u7b$closure$u7d$$u7d$17hcdd4e0be3c42e2a1E+0xa2>
 8001e8c:	2009      	movs	r0, #9
 8001e8e:	f807 0c0b 	strb.w	r0, [r7, #-11]
 8001e92:	f817 0c0b 	ldrb.w	r0, [r7, #-11]
 8001e96:	f88d 0010 	strb.w	r0, [sp, #16]
 8001e9a:	2004      	movs	r0, #4
 8001e9c:	9005      	str	r0, [sp, #20]
 8001e9e:	e7e8      	b.n	8001e72 <_ZN16stm32f3xx_hal_v23rcc4CFGR6freeze28_$u7b$$u7b$closure$u7d$$u7d$17hcdd4e0be3c42e2a1E+0x88>
 8001ea0:	9800      	ldr	r0, [sp, #0]
 8001ea2:	280b      	cmp	r0, #11
 8001ea4:	d812      	bhi.n	8001ecc <_ZN16stm32f3xx_hal_v23rcc4CFGR6freeze28_$u7b$$u7b$closure$u7d$$u7d$17hcdd4e0be3c42e2a1E+0xe2>
 8001ea6:	e00d      	b.n	8001ec4 <_ZN16stm32f3xx_hal_v23rcc4CFGR6freeze28_$u7b$$u7b$closure$u7d$$u7d$17hcdd4e0be3c42e2a1E+0xda>
 8001ea8:	9800      	ldr	r0, [sp, #0]
 8001eaa:	280b      	cmp	r0, #11
 8001eac:	d8f8      	bhi.n	8001ea0 <_ZN16stm32f3xx_hal_v23rcc4CFGR6freeze28_$u7b$$u7b$closure$u7d$$u7d$17hcdd4e0be3c42e2a1E+0xb6>
 8001eae:	e7ff      	b.n	8001eb0 <_ZN16stm32f3xx_hal_v23rcc4CFGR6freeze28_$u7b$$u7b$closure$u7d$$u7d$17hcdd4e0be3c42e2a1E+0xc6>
 8001eb0:	200a      	movs	r0, #10
 8001eb2:	f807 0c0a 	strb.w	r0, [r7, #-10]
 8001eb6:	f817 0c0a 	ldrb.w	r0, [r7, #-10]
 8001eba:	f88d 0010 	strb.w	r0, [sp, #16]
 8001ebe:	2008      	movs	r0, #8
 8001ec0:	9005      	str	r0, [sp, #20]
 8001ec2:	e7d6      	b.n	8001e72 <_ZN16stm32f3xx_hal_v23rcc4CFGR6freeze28_$u7b$$u7b$closure$u7d$$u7d$17hcdd4e0be3c42e2a1E+0x88>
 8001ec4:	9800      	ldr	r0, [sp, #0]
 8001ec6:	2827      	cmp	r0, #39	; 0x27
 8001ec8:	d812      	bhi.n	8001ef0 <_ZN16stm32f3xx_hal_v23rcc4CFGR6freeze28_$u7b$$u7b$closure$u7d$$u7d$17hcdd4e0be3c42e2a1E+0x106>
 8001eca:	e00d      	b.n	8001ee8 <_ZN16stm32f3xx_hal_v23rcc4CFGR6freeze28_$u7b$$u7b$closure$u7d$$u7d$17hcdd4e0be3c42e2a1E+0xfe>
 8001ecc:	9800      	ldr	r0, [sp, #0]
 8001ece:	2827      	cmp	r0, #39	; 0x27
 8001ed0:	d8f8      	bhi.n	8001ec4 <_ZN16stm32f3xx_hal_v23rcc4CFGR6freeze28_$u7b$$u7b$closure$u7d$$u7d$17hcdd4e0be3c42e2a1E+0xda>
 8001ed2:	e7ff      	b.n	8001ed4 <_ZN16stm32f3xx_hal_v23rcc4CFGR6freeze28_$u7b$$u7b$closure$u7d$$u7d$17hcdd4e0be3c42e2a1E+0xea>
 8001ed4:	200b      	movs	r0, #11
 8001ed6:	f807 0c09 	strb.w	r0, [r7, #-9]
 8001eda:	f817 0c09 	ldrb.w	r0, [r7, #-9]
 8001ede:	f88d 0010 	strb.w	r0, [sp, #16]
 8001ee2:	2010      	movs	r0, #16
 8001ee4:	9005      	str	r0, [sp, #20]
 8001ee6:	e7c4      	b.n	8001e72 <_ZN16stm32f3xx_hal_v23rcc4CFGR6freeze28_$u7b$$u7b$closure$u7d$$u7d$17hcdd4e0be3c42e2a1E+0x88>
 8001ee8:	9800      	ldr	r0, [sp, #0]
 8001eea:	285f      	cmp	r0, #95	; 0x5f
 8001eec:	d812      	bhi.n	8001f14 <_ZN16stm32f3xx_hal_v23rcc4CFGR6freeze28_$u7b$$u7b$closure$u7d$$u7d$17hcdd4e0be3c42e2a1E+0x12a>
 8001eee:	e00d      	b.n	8001f0c <_ZN16stm32f3xx_hal_v23rcc4CFGR6freeze28_$u7b$$u7b$closure$u7d$$u7d$17hcdd4e0be3c42e2a1E+0x122>
 8001ef0:	9800      	ldr	r0, [sp, #0]
 8001ef2:	285f      	cmp	r0, #95	; 0x5f
 8001ef4:	d8f8      	bhi.n	8001ee8 <_ZN16stm32f3xx_hal_v23rcc4CFGR6freeze28_$u7b$$u7b$closure$u7d$$u7d$17hcdd4e0be3c42e2a1E+0xfe>
 8001ef6:	e7ff      	b.n	8001ef8 <_ZN16stm32f3xx_hal_v23rcc4CFGR6freeze28_$u7b$$u7b$closure$u7d$$u7d$17hcdd4e0be3c42e2a1E+0x10e>
 8001ef8:	200c      	movs	r0, #12
 8001efa:	f88d 0020 	strb.w	r0, [sp, #32]
 8001efe:	f89d 0020 	ldrb.w	r0, [sp, #32]
 8001f02:	f88d 0010 	strb.w	r0, [sp, #16]
 8001f06:	2040      	movs	r0, #64	; 0x40
 8001f08:	9005      	str	r0, [sp, #20]
 8001f0a:	e7b2      	b.n	8001e72 <_ZN16stm32f3xx_hal_v23rcc4CFGR6freeze28_$u7b$$u7b$closure$u7d$$u7d$17hcdd4e0be3c42e2a1E+0x88>
 8001f0c:	9800      	ldr	r0, [sp, #0]
 8001f0e:	28bf      	cmp	r0, #191	; 0xbf
 8001f10:	d819      	bhi.n	8001f46 <_ZN16stm32f3xx_hal_v23rcc4CFGR6freeze28_$u7b$$u7b$closure$u7d$$u7d$17hcdd4e0be3c42e2a1E+0x15c>
 8001f12:	e00d      	b.n	8001f30 <_ZN16stm32f3xx_hal_v23rcc4CFGR6freeze28_$u7b$$u7b$closure$u7d$$u7d$17hcdd4e0be3c42e2a1E+0x146>
 8001f14:	9800      	ldr	r0, [sp, #0]
 8001f16:	28bf      	cmp	r0, #191	; 0xbf
 8001f18:	d8f8      	bhi.n	8001f0c <_ZN16stm32f3xx_hal_v23rcc4CFGR6freeze28_$u7b$$u7b$closure$u7d$$u7d$17hcdd4e0be3c42e2a1E+0x122>
 8001f1a:	e7ff      	b.n	8001f1c <_ZN16stm32f3xx_hal_v23rcc4CFGR6freeze28_$u7b$$u7b$closure$u7d$$u7d$17hcdd4e0be3c42e2a1E+0x132>
 8001f1c:	200d      	movs	r0, #13
 8001f1e:	f807 0c07 	strb.w	r0, [r7, #-7]
 8001f22:	f817 0c07 	ldrb.w	r0, [r7, #-7]
 8001f26:	f88d 0010 	strb.w	r0, [sp, #16]
 8001f2a:	2080      	movs	r0, #128	; 0x80
 8001f2c:	9005      	str	r0, [sp, #20]
 8001f2e:	e7a0      	b.n	8001e72 <_ZN16stm32f3xx_hal_v23rcc4CFGR6freeze28_$u7b$$u7b$closure$u7d$$u7d$17hcdd4e0be3c42e2a1E+0x88>
 8001f30:	200f      	movs	r0, #15
 8001f32:	f807 0c05 	strb.w	r0, [r7, #-5]
 8001f36:	f817 0c05 	ldrb.w	r0, [r7, #-5]
 8001f3a:	f88d 0010 	strb.w	r0, [sp, #16]
 8001f3e:	f44f 7000 	mov.w	r0, #512	; 0x200
 8001f42:	9005      	str	r0, [sp, #20]
 8001f44:	e795      	b.n	8001e72 <_ZN16stm32f3xx_hal_v23rcc4CFGR6freeze28_$u7b$$u7b$closure$u7d$$u7d$17hcdd4e0be3c42e2a1E+0x88>
 8001f46:	9800      	ldr	r0, [sp, #0]
 8001f48:	09c0      	lsrs	r0, r0, #7
 8001f4a:	2802      	cmp	r0, #2
 8001f4c:	d8f0      	bhi.n	8001f30 <_ZN16stm32f3xx_hal_v23rcc4CFGR6freeze28_$u7b$$u7b$closure$u7d$$u7d$17hcdd4e0be3c42e2a1E+0x146>
 8001f4e:	e7ff      	b.n	8001f50 <_ZN16stm32f3xx_hal_v23rcc4CFGR6freeze28_$u7b$$u7b$closure$u7d$$u7d$17hcdd4e0be3c42e2a1E+0x166>
 8001f50:	200e      	movs	r0, #14
 8001f52:	f807 0c06 	strb.w	r0, [r7, #-6]
 8001f56:	f817 0c06 	ldrb.w	r0, [r7, #-6]
 8001f5a:	f88d 0010 	strb.w	r0, [sp, #16]
 8001f5e:	f44f 7080 	mov.w	r0, #256	; 0x100
 8001f62:	9005      	str	r0, [sp, #20]
 8001f64:	e785      	b.n	8001e72 <_ZN16stm32f3xx_hal_v23rcc4CFGR6freeze28_$u7b$$u7b$closure$u7d$$u7d$17hcdd4e0be3c42e2a1E+0x88>

08001f66 <_ZN16stm32f3xx_hal_v23rcc4CFGR6freeze28_$u7b$$u7b$closure$u7d$$u7d$17h0acd494610b2fc95E>:
 8001f66:	b580      	push	{r7, lr}
 8001f68:	466f      	mov	r7, sp
 8001f6a:	b088      	sub	sp, #32
 8001f6c:	9102      	str	r1, [sp, #8]
 8001f6e:	9004      	str	r0, [sp, #16]
 8001f70:	9107      	str	r1, [sp, #28]
 8001f72:	9804      	ldr	r0, [sp, #16]
 8001f74:	6800      	ldr	r0, [r0, #0]
 8001f76:	9003      	str	r0, [sp, #12]
 8001f78:	b181      	cbz	r1, 8001f9c <_ZN16stm32f3xx_hal_v23rcc4CFGR6freeze28_$u7b$$u7b$closure$u7d$$u7d$17h0acd494610b2fc95E+0x36>
 8001f7a:	e7ff      	b.n	8001f7c <_ZN16stm32f3xx_hal_v23rcc4CFGR6freeze28_$u7b$$u7b$closure$u7d$$u7d$17h0acd494610b2fc95E+0x16>
 8001f7c:	9803      	ldr	r0, [sp, #12]
 8001f7e:	9902      	ldr	r1, [sp, #8]
 8001f80:	fbb0 f0f1 	udiv	r0, r0, r1
 8001f84:	4601      	mov	r1, r0
 8001f86:	9101      	str	r1, [sp, #4]
 8001f88:	b190      	cbz	r0, 8001fb0 <_ZN16stm32f3xx_hal_v23rcc4CFGR6freeze28_$u7b$$u7b$closure$u7d$$u7d$17h0acd494610b2fc95E+0x4a>
 8001f8a:	e7ff      	b.n	8001f8c <_ZN16stm32f3xx_hal_v23rcc4CFGR6freeze28_$u7b$$u7b$closure$u7d$$u7d$17h0acd494610b2fc95E+0x26>
 8001f8c:	9801      	ldr	r0, [sp, #4]
 8001f8e:	2801      	cmp	r0, #1
 8001f90:	d019      	beq.n	8001fc6 <_ZN16stm32f3xx_hal_v23rcc4CFGR6freeze28_$u7b$$u7b$closure$u7d$$u7d$17h0acd494610b2fc95E+0x60>
 8001f92:	e7ff      	b.n	8001f94 <_ZN16stm32f3xx_hal_v23rcc4CFGR6freeze28_$u7b$$u7b$closure$u7d$$u7d$17h0acd494610b2fc95E+0x2e>
 8001f94:	9801      	ldr	r0, [sp, #4]
 8001f96:	2802      	cmp	r0, #2
 8001f98:	d020      	beq.n	8001fdc <_ZN16stm32f3xx_hal_v23rcc4CFGR6freeze28_$u7b$$u7b$closure$u7d$$u7d$17h0acd494610b2fc95E+0x76>
 8001f9a:	e005      	b.n	8001fa8 <_ZN16stm32f3xx_hal_v23rcc4CFGR6freeze28_$u7b$$u7b$closure$u7d$$u7d$17h0acd494610b2fc95E+0x42>
 8001f9c:	f244 40f0 	movw	r0, #17648	; 0x44f0
 8001fa0:	f6c0 0000 	movt	r0, #2048	; 0x800
 8001fa4:	f001 fbf2 	bl	800378c <_ZN4core9panicking11panic_const23panic_const_div_by_zero17h2a31fcd9fa76bd10E>
 8001fa8:	9801      	ldr	r0, [sp, #4]
 8001faa:	2802      	cmp	r0, #2
 8001fac:	d82b      	bhi.n	8002006 <_ZN16stm32f3xx_hal_v23rcc4CFGR6freeze28_$u7b$$u7b$closure$u7d$$u7d$17h0acd494610b2fc95E+0xa0>
 8001fae:	e026      	b.n	8001ffe <_ZN16stm32f3xx_hal_v23rcc4CFGR6freeze28_$u7b$$u7b$closure$u7d$$u7d$17h0acd494610b2fc95E+0x98>
 8001fb0:	f244 20b8 	movw	r0, #17080	; 0x42b8
 8001fb4:	f6c0 0000 	movt	r0, #2048	; 0x800
 8001fb8:	f244 5200 	movw	r2, #17664	; 0x4500
 8001fbc:	f6c0 0200 	movt	r2, #2048	; 0x800
 8001fc0:	2128      	movs	r1, #40	; 0x28
 8001fc2:	f000 fe3e 	bl	8002c42 <_ZN4core9panicking5panic17h080ae1d68604d494E>
 8001fc6:	2000      	movs	r0, #0
 8001fc8:	f807 0c09 	strb.w	r0, [r7, #-9]
 8001fcc:	f817 0c09 	ldrb.w	r0, [r7, #-9]
 8001fd0:	f807 0c0b 	strb.w	r0, [r7, #-11]
 8001fd4:	2001      	movs	r0, #1
 8001fd6:	f807 0c0a 	strb.w	r0, [r7, #-10]
 8001fda:	e00a      	b.n	8001ff2 <_ZN16stm32f3xx_hal_v23rcc4CFGR6freeze28_$u7b$$u7b$closure$u7d$$u7d$17h0acd494610b2fc95E+0x8c>
 8001fdc:	2004      	movs	r0, #4
 8001fde:	f88d 0018 	strb.w	r0, [sp, #24]
 8001fe2:	f89d 0018 	ldrb.w	r0, [sp, #24]
 8001fe6:	f807 0c0b 	strb.w	r0, [r7, #-11]
 8001fea:	2002      	movs	r0, #2
 8001fec:	f807 0c0a 	strb.w	r0, [r7, #-10]
 8001ff0:	e7ff      	b.n	8001ff2 <_ZN16stm32f3xx_hal_v23rcc4CFGR6freeze28_$u7b$$u7b$closure$u7d$$u7d$17h0acd494610b2fc95E+0x8c>
 8001ff2:	f817 0c0b 	ldrb.w	r0, [r7, #-11]
 8001ff6:	f817 1c0a 	ldrb.w	r1, [r7, #-10]
 8001ffa:	b008      	add	sp, #32
 8001ffc:	bd80      	pop	{r7, pc}
 8001ffe:	9801      	ldr	r0, [sp, #4]
 8002000:	2805      	cmp	r0, #5
 8002002:	d81a      	bhi.n	800203a <_ZN16stm32f3xx_hal_v23rcc4CFGR6freeze28_$u7b$$u7b$closure$u7d$$u7d$17h0acd494610b2fc95E+0xd4>
 8002004:	e00e      	b.n	8002024 <_ZN16stm32f3xx_hal_v23rcc4CFGR6freeze28_$u7b$$u7b$closure$u7d$$u7d$17h0acd494610b2fc95E+0xbe>
 8002006:	9801      	ldr	r0, [sp, #4]
 8002008:	2805      	cmp	r0, #5
 800200a:	d8f8      	bhi.n	8001ffe <_ZN16stm32f3xx_hal_v23rcc4CFGR6freeze28_$u7b$$u7b$closure$u7d$$u7d$17h0acd494610b2fc95E+0x98>
 800200c:	e7ff      	b.n	800200e <_ZN16stm32f3xx_hal_v23rcc4CFGR6freeze28_$u7b$$u7b$closure$u7d$$u7d$17h0acd494610b2fc95E+0xa8>
 800200e:	2005      	movs	r0, #5
 8002010:	f807 0c07 	strb.w	r0, [r7, #-7]
 8002014:	f817 0c07 	ldrb.w	r0, [r7, #-7]
 8002018:	f807 0c0b 	strb.w	r0, [r7, #-11]
 800201c:	2004      	movs	r0, #4
 800201e:	f807 0c0a 	strb.w	r0, [r7, #-10]
 8002022:	e7e6      	b.n	8001ff2 <_ZN16stm32f3xx_hal_v23rcc4CFGR6freeze28_$u7b$$u7b$closure$u7d$$u7d$17h0acd494610b2fc95E+0x8c>
 8002024:	2007      	movs	r0, #7
 8002026:	f807 0c05 	strb.w	r0, [r7, #-5]
 800202a:	f817 0c05 	ldrb.w	r0, [r7, #-5]
 800202e:	f807 0c0b 	strb.w	r0, [r7, #-11]
 8002032:	2010      	movs	r0, #16
 8002034:	f807 0c0a 	strb.w	r0, [r7, #-10]
 8002038:	e7db      	b.n	8001ff2 <_ZN16stm32f3xx_hal_v23rcc4CFGR6freeze28_$u7b$$u7b$closure$u7d$$u7d$17h0acd494610b2fc95E+0x8c>
 800203a:	9801      	ldr	r0, [sp, #4]
 800203c:	280b      	cmp	r0, #11
 800203e:	d8f1      	bhi.n	8002024 <_ZN16stm32f3xx_hal_v23rcc4CFGR6freeze28_$u7b$$u7b$closure$u7d$$u7d$17h0acd494610b2fc95E+0xbe>
 8002040:	e7ff      	b.n	8002042 <_ZN16stm32f3xx_hal_v23rcc4CFGR6freeze28_$u7b$$u7b$closure$u7d$$u7d$17h0acd494610b2fc95E+0xdc>
 8002042:	2006      	movs	r0, #6
 8002044:	f807 0c06 	strb.w	r0, [r7, #-6]
 8002048:	f817 0c06 	ldrb.w	r0, [r7, #-6]
 800204c:	f807 0c0b 	strb.w	r0, [r7, #-11]
 8002050:	2008      	movs	r0, #8
 8002052:	f807 0c0a 	strb.w	r0, [r7, #-10]
 8002056:	e7cc      	b.n	8001ff2 <_ZN16stm32f3xx_hal_v23rcc4CFGR6freeze28_$u7b$$u7b$closure$u7d$$u7d$17h0acd494610b2fc95E+0x8c>

08002058 <_ZN16stm32f3xx_hal_v23rcc4CFGR6freeze28_$u7b$$u7b$closure$u7d$$u7d$17hfeb8e916e993748bE>:
 8002058:	b580      	push	{r7, lr}
 800205a:	466f      	mov	r7, sp
 800205c:	b088      	sub	sp, #32
 800205e:	9102      	str	r1, [sp, #8]
 8002060:	9004      	str	r0, [sp, #16]
 8002062:	9107      	str	r1, [sp, #28]
 8002064:	9804      	ldr	r0, [sp, #16]
 8002066:	6800      	ldr	r0, [r0, #0]
 8002068:	9003      	str	r0, [sp, #12]
 800206a:	b181      	cbz	r1, 800208e <_ZN16stm32f3xx_hal_v23rcc4CFGR6freeze28_$u7b$$u7b$closure$u7d$$u7d$17hfeb8e916e993748bE+0x36>
 800206c:	e7ff      	b.n	800206e <_ZN16stm32f3xx_hal_v23rcc4CFGR6freeze28_$u7b$$u7b$closure$u7d$$u7d$17hfeb8e916e993748bE+0x16>
 800206e:	9803      	ldr	r0, [sp, #12]
 8002070:	9902      	ldr	r1, [sp, #8]
 8002072:	fbb0 f0f1 	udiv	r0, r0, r1
 8002076:	4601      	mov	r1, r0
 8002078:	9101      	str	r1, [sp, #4]
 800207a:	b190      	cbz	r0, 80020a2 <_ZN16stm32f3xx_hal_v23rcc4CFGR6freeze28_$u7b$$u7b$closure$u7d$$u7d$17hfeb8e916e993748bE+0x4a>
 800207c:	e7ff      	b.n	800207e <_ZN16stm32f3xx_hal_v23rcc4CFGR6freeze28_$u7b$$u7b$closure$u7d$$u7d$17hfeb8e916e993748bE+0x26>
 800207e:	9801      	ldr	r0, [sp, #4]
 8002080:	2801      	cmp	r0, #1
 8002082:	d019      	beq.n	80020b8 <_ZN16stm32f3xx_hal_v23rcc4CFGR6freeze28_$u7b$$u7b$closure$u7d$$u7d$17hfeb8e916e993748bE+0x60>
 8002084:	e7ff      	b.n	8002086 <_ZN16stm32f3xx_hal_v23rcc4CFGR6freeze28_$u7b$$u7b$closure$u7d$$u7d$17hfeb8e916e993748bE+0x2e>
 8002086:	9801      	ldr	r0, [sp, #4]
 8002088:	2802      	cmp	r0, #2
 800208a:	d020      	beq.n	80020ce <_ZN16stm32f3xx_hal_v23rcc4CFGR6freeze28_$u7b$$u7b$closure$u7d$$u7d$17hfeb8e916e993748bE+0x76>
 800208c:	e005      	b.n	800209a <_ZN16stm32f3xx_hal_v23rcc4CFGR6freeze28_$u7b$$u7b$closure$u7d$$u7d$17hfeb8e916e993748bE+0x42>
 800208e:	f244 5010 	movw	r0, #17680	; 0x4510
 8002092:	f6c0 0000 	movt	r0, #2048	; 0x800
 8002096:	f001 fb79 	bl	800378c <_ZN4core9panicking11panic_const23panic_const_div_by_zero17h2a31fcd9fa76bd10E>
 800209a:	9801      	ldr	r0, [sp, #4]
 800209c:	2802      	cmp	r0, #2
 800209e:	d82b      	bhi.n	80020f8 <_ZN16stm32f3xx_hal_v23rcc4CFGR6freeze28_$u7b$$u7b$closure$u7d$$u7d$17hfeb8e916e993748bE+0xa0>
 80020a0:	e026      	b.n	80020f0 <_ZN16stm32f3xx_hal_v23rcc4CFGR6freeze28_$u7b$$u7b$closure$u7d$$u7d$17hfeb8e916e993748bE+0x98>
 80020a2:	f244 20b8 	movw	r0, #17080	; 0x42b8
 80020a6:	f6c0 0000 	movt	r0, #2048	; 0x800
 80020aa:	f244 5220 	movw	r2, #17696	; 0x4520
 80020ae:	f6c0 0200 	movt	r2, #2048	; 0x800
 80020b2:	2128      	movs	r1, #40	; 0x28
 80020b4:	f000 fdc5 	bl	8002c42 <_ZN4core9panicking5panic17h080ae1d68604d494E>
 80020b8:	2000      	movs	r0, #0
 80020ba:	f807 0c09 	strb.w	r0, [r7, #-9]
 80020be:	f817 0c09 	ldrb.w	r0, [r7, #-9]
 80020c2:	f807 0c0b 	strb.w	r0, [r7, #-11]
 80020c6:	2001      	movs	r0, #1
 80020c8:	f807 0c0a 	strb.w	r0, [r7, #-10]
 80020cc:	e00a      	b.n	80020e4 <_ZN16stm32f3xx_hal_v23rcc4CFGR6freeze28_$u7b$$u7b$closure$u7d$$u7d$17hfeb8e916e993748bE+0x8c>
 80020ce:	2004      	movs	r0, #4
 80020d0:	f88d 0018 	strb.w	r0, [sp, #24]
 80020d4:	f89d 0018 	ldrb.w	r0, [sp, #24]
 80020d8:	f807 0c0b 	strb.w	r0, [r7, #-11]
 80020dc:	2002      	movs	r0, #2
 80020de:	f807 0c0a 	strb.w	r0, [r7, #-10]
 80020e2:	e7ff      	b.n	80020e4 <_ZN16stm32f3xx_hal_v23rcc4CFGR6freeze28_$u7b$$u7b$closure$u7d$$u7d$17hfeb8e916e993748bE+0x8c>
 80020e4:	f817 0c0b 	ldrb.w	r0, [r7, #-11]
 80020e8:	f817 1c0a 	ldrb.w	r1, [r7, #-10]
 80020ec:	b008      	add	sp, #32
 80020ee:	bd80      	pop	{r7, pc}
 80020f0:	9801      	ldr	r0, [sp, #4]
 80020f2:	2805      	cmp	r0, #5
 80020f4:	d81a      	bhi.n	800212c <_ZN16stm32f3xx_hal_v23rcc4CFGR6freeze28_$u7b$$u7b$closure$u7d$$u7d$17hfeb8e916e993748bE+0xd4>
 80020f6:	e00e      	b.n	8002116 <_ZN16stm32f3xx_hal_v23rcc4CFGR6freeze28_$u7b$$u7b$closure$u7d$$u7d$17hfeb8e916e993748bE+0xbe>
 80020f8:	9801      	ldr	r0, [sp, #4]
 80020fa:	2805      	cmp	r0, #5
 80020fc:	d8f8      	bhi.n	80020f0 <_ZN16stm32f3xx_hal_v23rcc4CFGR6freeze28_$u7b$$u7b$closure$u7d$$u7d$17hfeb8e916e993748bE+0x98>
 80020fe:	e7ff      	b.n	8002100 <_ZN16stm32f3xx_hal_v23rcc4CFGR6freeze28_$u7b$$u7b$closure$u7d$$u7d$17hfeb8e916e993748bE+0xa8>
 8002100:	2005      	movs	r0, #5
 8002102:	f807 0c07 	strb.w	r0, [r7, #-7]
 8002106:	f817 0c07 	ldrb.w	r0, [r7, #-7]
 800210a:	f807 0c0b 	strb.w	r0, [r7, #-11]
 800210e:	2004      	movs	r0, #4
 8002110:	f807 0c0a 	strb.w	r0, [r7, #-10]
 8002114:	e7e6      	b.n	80020e4 <_ZN16stm32f3xx_hal_v23rcc4CFGR6freeze28_$u7b$$u7b$closure$u7d$$u7d$17hfeb8e916e993748bE+0x8c>
 8002116:	2007      	movs	r0, #7
 8002118:	f807 0c05 	strb.w	r0, [r7, #-5]
 800211c:	f817 0c05 	ldrb.w	r0, [r7, #-5]
 8002120:	f807 0c0b 	strb.w	r0, [r7, #-11]
 8002124:	2010      	movs	r0, #16
 8002126:	f807 0c0a 	strb.w	r0, [r7, #-10]
 800212a:	e7db      	b.n	80020e4 <_ZN16stm32f3xx_hal_v23rcc4CFGR6freeze28_$u7b$$u7b$closure$u7d$$u7d$17hfeb8e916e993748bE+0x8c>
 800212c:	9801      	ldr	r0, [sp, #4]
 800212e:	280b      	cmp	r0, #11
 8002130:	d8f1      	bhi.n	8002116 <_ZN16stm32f3xx_hal_v23rcc4CFGR6freeze28_$u7b$$u7b$closure$u7d$$u7d$17hfeb8e916e993748bE+0xbe>
 8002132:	e7ff      	b.n	8002134 <_ZN16stm32f3xx_hal_v23rcc4CFGR6freeze28_$u7b$$u7b$closure$u7d$$u7d$17hfeb8e916e993748bE+0xdc>
 8002134:	2006      	movs	r0, #6
 8002136:	f807 0c06 	strb.w	r0, [r7, #-6]
 800213a:	f817 0c06 	ldrb.w	r0, [r7, #-6]
 800213e:	f807 0c0b 	strb.w	r0, [r7, #-11]
 8002142:	2008      	movs	r0, #8
 8002144:	f807 0c0a 	strb.w	r0, [r7, #-10]
 8002148:	e7cc      	b.n	80020e4 <_ZN16stm32f3xx_hal_v23rcc4CFGR6freeze28_$u7b$$u7b$closure$u7d$$u7d$17hfeb8e916e993748bE+0x8c>

0800214a <_ZN16stm32f3xx_hal_v23rcc4CFGR6freeze28_$u7b$$u7b$closure$u7d$$u7d$17he6d90a89d4fe4907E>:
 800214a:	b580      	push	{r7, lr}
 800214c:	466f      	mov	r7, sp
 800214e:	b09a      	sub	sp, #104	; 0x68
 8002150:	9200      	str	r2, [sp, #0]
 8002152:	9001      	str	r0, [sp, #4]
 8002154:	9103      	str	r1, [sp, #12]
 8002156:	9204      	str	r2, [sp, #16]
 8002158:	9801      	ldr	r0, [sp, #4]
 800215a:	6800      	ldr	r0, [r0, #0]
 800215c:	f243 6101 	movw	r1, #13825	; 0x3601
 8002160:	f2c0 116e 	movt	r1, #366	; 0x16e
 8002164:	4288      	cmp	r0, r1
 8002166:	d309      	bcc.n	800217c <_ZN16stm32f3xx_hal_v23rcc4CFGR6freeze28_$u7b$$u7b$closure$u7d$$u7d$17he6d90a89d4fe4907E+0x32>
 8002168:	e7ff      	b.n	800216a <_ZN16stm32f3xx_hal_v23rcc4CFGR6freeze28_$u7b$$u7b$closure$u7d$$u7d$17he6d90a89d4fe4907E+0x20>
 800216a:	9801      	ldr	r0, [sp, #4]
 800216c:	6800      	ldr	r0, [r0, #0]
 800216e:	f646 4101 	movw	r1, #27649	; 0x6c01
 8002172:	f2c0 21dc 	movt	r1, #732	; 0x2dc
 8002176:	4288      	cmp	r0, r1
 8002178:	d33c      	bcc.n	80021f4 <_ZN16stm32f3xx_hal_v23rcc4CFGR6freeze28_$u7b$$u7b$closure$u7d$$u7d$17he6d90a89d4fe4907E+0xaa>
 800217a:	e01d      	b.n	80021b8 <_ZN16stm32f3xx_hal_v23rcc4CFGR6freeze28_$u7b$$u7b$closure$u7d$$u7d$17he6d90a89d4fe4907E+0x6e>
 800217c:	9900      	ldr	r1, [sp, #0]
 800217e:	9105      	str	r1, [sp, #20]
 8002180:	9109      	str	r1, [sp, #36]	; 0x24
 8002182:	2000      	movs	r0, #0
 8002184:	f807 0c45 	strb.w	r0, [r7, #-69]
 8002188:	f817 0c45 	ldrb.w	r0, [r7, #-69]
 800218c:	9116      	str	r1, [sp, #88]	; 0x58
 800218e:	f807 0c09 	strb.w	r0, [r7, #-9]
 8002192:	f244 11cc 	movw	r1, #16844	; 0x41cc
 8002196:	f6c0 0100 	movt	r1, #2048	; 0x800
 800219a:	f7ff f813 	bl	80011c4 <_ZN50_$LT$T$u20$as$u20$core..convert..Into$LT$U$GT$$GT$4into17h2dd4300fca55fbfcE>
 800219e:	4602      	mov	r2, r0
 80021a0:	9800      	ldr	r0, [sp, #0]
 80021a2:	9018      	str	r0, [sp, #96]	; 0x60
 80021a4:	f807 2c01 	strb.w	r2, [r7, #-1]
 80021a8:	9918      	ldr	r1, [sp, #96]	; 0x60
 80021aa:	6808      	ldr	r0, [r1, #0]
 80021ac:	f362 0002 	bfi	r0, r2, #0, #3
 80021b0:	6008      	str	r0, [r1, #0]
 80021b2:	9818      	ldr	r0, [sp, #96]	; 0x60
 80021b4:	9002      	str	r0, [sp, #8]
 80021b6:	e03b      	b.n	8002230 <_ZN16stm32f3xx_hal_v23rcc4CFGR6freeze28_$u7b$$u7b$closure$u7d$$u7d$17he6d90a89d4fe4907E+0xe6>
 80021b8:	9900      	ldr	r1, [sp, #0]
 80021ba:	9107      	str	r1, [sp, #28]
 80021bc:	910d      	str	r1, [sp, #52]	; 0x34
 80021be:	2002      	movs	r0, #2
 80021c0:	f807 0c35 	strb.w	r0, [r7, #-53]
 80021c4:	f817 0c35 	ldrb.w	r0, [r7, #-53]
 80021c8:	910e      	str	r1, [sp, #56]	; 0x38
 80021ca:	f807 0c29 	strb.w	r0, [r7, #-41]
 80021ce:	f244 11cc 	movw	r1, #16844	; 0x41cc
 80021d2:	f6c0 0100 	movt	r1, #2048	; 0x800
 80021d6:	f7fe fff5 	bl	80011c4 <_ZN50_$LT$T$u20$as$u20$core..convert..Into$LT$U$GT$$GT$4into17h2dd4300fca55fbfcE>
 80021da:	4602      	mov	r2, r0
 80021dc:	9800      	ldr	r0, [sp, #0]
 80021de:	9010      	str	r0, [sp, #64]	; 0x40
 80021e0:	f807 2c21 	strb.w	r2, [r7, #-33]
 80021e4:	9910      	ldr	r1, [sp, #64]	; 0x40
 80021e6:	6808      	ldr	r0, [r1, #0]
 80021e8:	f362 0002 	bfi	r0, r2, #0, #3
 80021ec:	6008      	str	r0, [r1, #0]
 80021ee:	9810      	ldr	r0, [sp, #64]	; 0x40
 80021f0:	9002      	str	r0, [sp, #8]
 80021f2:	e01d      	b.n	8002230 <_ZN16stm32f3xx_hal_v23rcc4CFGR6freeze28_$u7b$$u7b$closure$u7d$$u7d$17he6d90a89d4fe4907E+0xe6>
 80021f4:	9900      	ldr	r1, [sp, #0]
 80021f6:	9106      	str	r1, [sp, #24]
 80021f8:	910b      	str	r1, [sp, #44]	; 0x2c
 80021fa:	2001      	movs	r0, #1
 80021fc:	f807 0c3d 	strb.w	r0, [r7, #-61]
 8002200:	f817 0c3d 	ldrb.w	r0, [r7, #-61]
 8002204:	9112      	str	r1, [sp, #72]	; 0x48
 8002206:	f807 0c19 	strb.w	r0, [r7, #-25]
 800220a:	f244 11cc 	movw	r1, #16844	; 0x41cc
 800220e:	f6c0 0100 	movt	r1, #2048	; 0x800
 8002212:	f7fe ffd7 	bl	80011c4 <_ZN50_$LT$T$u20$as$u20$core..convert..Into$LT$U$GT$$GT$4into17h2dd4300fca55fbfcE>
 8002216:	4602      	mov	r2, r0
 8002218:	9800      	ldr	r0, [sp, #0]
 800221a:	9014      	str	r0, [sp, #80]	; 0x50
 800221c:	f807 2c11 	strb.w	r2, [r7, #-17]
 8002220:	9914      	ldr	r1, [sp, #80]	; 0x50
 8002222:	6808      	ldr	r0, [r1, #0]
 8002224:	f362 0002 	bfi	r0, r2, #0, #3
 8002228:	6008      	str	r0, [r1, #0]
 800222a:	9814      	ldr	r0, [sp, #80]	; 0x50
 800222c:	9002      	str	r0, [sp, #8]
 800222e:	e7ff      	b.n	8002230 <_ZN16stm32f3xx_hal_v23rcc4CFGR6freeze28_$u7b$$u7b$closure$u7d$$u7d$17he6d90a89d4fe4907E+0xe6>
 8002230:	9802      	ldr	r0, [sp, #8]
 8002232:	b01a      	add	sp, #104	; 0x68
 8002234:	bd80      	pop	{r7, pc}

08002236 <_ZN16stm32f3xx_hal_v23rcc4CFGR6freeze28_$u7b$$u7b$closure$u7d$$u7d$17h48e1952120d483c8E>:
 8002236:	b580      	push	{r7, lr}
 8002238:	466f      	mov	r7, sp
 800223a:	b090      	sub	sp, #64	; 0x40
 800223c:	9200      	str	r2, [sp, #0]
 800223e:	9001      	str	r0, [sp, #4]
 8002240:	9102      	str	r1, [sp, #8]
 8002242:	9203      	str	r2, [sp, #12]
 8002244:	9206      	str	r2, [sp, #24]
 8002246:	9801      	ldr	r0, [sp, #4]
 8002248:	f890 0028 	ldrb.w	r0, [r0, #40]	; 0x28
 800224c:	920e      	str	r2, [sp, #56]	; 0x38
 800224e:	f000 0301 	and.w	r3, r0, #1
 8002252:	f807 3c01 	strb.w	r3, [r7, #-1]
 8002256:	990e      	ldr	r1, [sp, #56]	; 0x38
 8002258:	6808      	ldr	r0, [r1, #0]
 800225a:	f420 2080 	bic.w	r0, r0, #262144	; 0x40000
 800225e:	ea40 4083 	orr.w	r0, r0, r3, lsl #18
 8002262:	6008      	str	r0, [r1, #0]
 8002264:	9204      	str	r2, [sp, #16]
 8002266:	9801      	ldr	r0, [sp, #4]
 8002268:	f890 0029 	ldrb.w	r0, [r0, #41]	; 0x29
 800226c:	9207      	str	r2, [sp, #28]
 800226e:	f000 0301 	and.w	r3, r0, #1
 8002272:	f807 3c1e 	strb.w	r3, [r7, #-30]
 8002276:	9907      	ldr	r1, [sp, #28]
 8002278:	6808      	ldr	r0, [r1, #0]
 800227a:	f420 2000 	bic.w	r0, r0, #524288	; 0x80000
 800227e:	ea40 40c3 	orr.w	r0, r0, r3, lsl #19
 8002282:	6008      	str	r0, [r1, #0]
 8002284:	9205      	str	r2, [sp, #20]
 8002286:	9209      	str	r2, [sp, #36]	; 0x24
 8002288:	2001      	movs	r0, #1
 800228a:	f807 0c1d 	strb.w	r0, [r7, #-29]
 800228e:	f817 0c1d 	ldrb.w	r0, [r7, #-29]
 8002292:	920a      	str	r2, [sp, #40]	; 0x28
 8002294:	f000 0001 	and.w	r0, r0, #1
 8002298:	f807 0c11 	strb.w	r0, [r7, #-17]
 800229c:	f244 0104 	movw	r1, #16388	; 0x4004
 80022a0:	f6c0 0100 	movt	r1, #2048	; 0x800
 80022a4:	f7fe ff69 	bl	800117a <_ZN50_$LT$T$u20$as$u20$core..convert..Into$LT$U$GT$$GT$4into17h030525f954c9e9aeE>
 80022a8:	4602      	mov	r2, r0
 80022aa:	9800      	ldr	r0, [sp, #0]
 80022ac:	900c      	str	r0, [sp, #48]	; 0x30
 80022ae:	f807 2c09 	strb.w	r2, [r7, #-9]
 80022b2:	990c      	ldr	r1, [sp, #48]	; 0x30
 80022b4:	6808      	ldr	r0, [r1, #0]
 80022b6:	f420 3080 	bic.w	r0, r0, #65536	; 0x10000
 80022ba:	ea40 4002 	orr.w	r0, r0, r2, lsl #16
 80022be:	6008      	str	r0, [r1, #0]
 80022c0:	980c      	ldr	r0, [sp, #48]	; 0x30
 80022c2:	b010      	add	sp, #64	; 0x40
 80022c4:	bd80      	pop	{r7, pc}

080022c6 <_ZN16stm32f3xx_hal_v23rcc4CFGR6freeze28_$u7b$$u7b$closure$u7d$$u7d$17heac661de2574f00fE>:
 80022c6:	b580      	push	{r7, lr}
 80022c8:	466f      	mov	r7, sp
 80022ca:	b090      	sub	sp, #64	; 0x40
 80022cc:	9201      	str	r2, [sp, #4]
 80022ce:	9003      	str	r0, [sp, #12]
 80022d0:	9104      	str	r1, [sp, #16]
 80022d2:	9205      	str	r2, [sp, #20]
 80022d4:	9206      	str	r2, [sp, #24]
 80022d6:	9803      	ldr	r0, [sp, #12]
 80022d8:	7840      	ldrb	r0, [r0, #1]
 80022da:	9208      	str	r2, [sp, #32]
 80022dc:	f807 0c19 	strb.w	r0, [r7, #-25]
 80022e0:	f244 01cc 	movw	r1, #16588	; 0x40cc
 80022e4:	f6c0 0100 	movt	r1, #2048	; 0x800
 80022e8:	f7fe ff75 	bl	80011d6 <_ZN50_$LT$T$u20$as$u20$core..convert..Into$LT$U$GT$$GT$4into17h48561233cc38dec0E>
 80022ec:	4602      	mov	r2, r0
 80022ee:	9801      	ldr	r0, [sp, #4]
 80022f0:	900a      	str	r0, [sp, #40]	; 0x28
 80022f2:	f807 2c11 	strb.w	r2, [r7, #-17]
 80022f6:	990a      	ldr	r1, [sp, #40]	; 0x28
 80022f8:	6808      	ldr	r0, [r1, #0]
 80022fa:	f420 1070 	bic.w	r0, r0, #3932160	; 0x3c0000
 80022fe:	f002 020f 	and.w	r2, r2, #15
 8002302:	ea40 4082 	orr.w	r0, r0, r2, lsl #18
 8002306:	6008      	str	r0, [r1, #0]
 8002308:	990a      	ldr	r1, [sp, #40]	; 0x28
 800230a:	9102      	str	r1, [sp, #8]
 800230c:	9107      	str	r1, [sp, #28]
 800230e:	9803      	ldr	r0, [sp, #12]
 8002310:	7800      	ldrb	r0, [r0, #0]
 8002312:	910c      	str	r1, [sp, #48]	; 0x30
 8002314:	f807 0c09 	strb.w	r0, [r7, #-9]
 8002318:	f244 01dc 	movw	r1, #16604	; 0x40dc
 800231c:	f6c0 0100 	movt	r1, #2048	; 0x800
 8002320:	f7fe ff7f 	bl	8001222 <_ZN50_$LT$T$u20$as$u20$core..convert..Into$LT$U$GT$$GT$4into17hb174ce467e5c2bc5E>
 8002324:	4602      	mov	r2, r0
 8002326:	9802      	ldr	r0, [sp, #8]
 8002328:	900e      	str	r0, [sp, #56]	; 0x38
 800232a:	f807 2c01 	strb.w	r2, [r7, #-1]
 800232e:	990e      	ldr	r1, [sp, #56]	; 0x38
 8002330:	6808      	ldr	r0, [r1, #0]
 8002332:	f420 30c0 	bic.w	r0, r0, #98304	; 0x18000
 8002336:	f002 0203 	and.w	r2, r2, #3
 800233a:	ea40 30c2 	orr.w	r0, r0, r2, lsl #15
 800233e:	6008      	str	r0, [r1, #0]
 8002340:	980e      	ldr	r0, [sp, #56]	; 0x38
 8002342:	b010      	add	sp, #64	; 0x40
 8002344:	bd80      	pop	{r7, pc}

08002346 <_ZN16stm32f3xx_hal_v23rcc4CFGR6freeze28_$u7b$$u7b$closure$u7d$$u7d$17h4c40d108d0ac62e8E>:
 8002346:	b580      	push	{r7, lr}
 8002348:	466f      	mov	r7, sp
 800234a:	b08a      	sub	sp, #40	; 0x28
 800234c:	9201      	str	r2, [sp, #4]
 800234e:	9002      	str	r0, [sp, #8]
 8002350:	9103      	str	r1, [sp, #12]
 8002352:	9204      	str	r2, [sp, #16]
 8002354:	9205      	str	r2, [sp, #20]
 8002356:	9802      	ldr	r0, [sp, #8]
 8002358:	7800      	ldrb	r0, [r0, #0]
 800235a:	9206      	str	r2, [sp, #24]
 800235c:	f807 0c09 	strb.w	r0, [r7, #-9]
 8002360:	f244 1154 	movw	r1, #16724	; 0x4154
 8002364:	f6c0 0100 	movt	r1, #2048	; 0x800
 8002368:	f7fe ff7b 	bl	8001262 <_ZN50_$LT$T$u20$as$u20$core..convert..Into$LT$U$GT$$GT$4into17h81d42a306be019dfE>
 800236c:	4602      	mov	r2, r0
 800236e:	9801      	ldr	r0, [sp, #4]
 8002370:	9008      	str	r0, [sp, #32]
 8002372:	f807 2c01 	strb.w	r2, [r7, #-1]
 8002376:	9908      	ldr	r1, [sp, #32]
 8002378:	6808      	ldr	r0, [r1, #0]
 800237a:	f362 0003 	bfi	r0, r2, #0, #4
 800237e:	6008      	str	r0, [r1, #0]
 8002380:	9808      	ldr	r0, [sp, #32]
 8002382:	b00a      	add	sp, #40	; 0x28
 8002384:	bd80      	pop	{r7, pc}

08002386 <_ZN16stm32f3xx_hal_v23rcc4CFGR6freeze28_$u7b$$u7b$closure$u7d$$u7d$17hf3d4cee1ba7335a8E>:
 8002386:	b580      	push	{r7, lr}
 8002388:	466f      	mov	r7, sp
 800238a:	b08c      	sub	sp, #48	; 0x30
 800238c:	9101      	str	r1, [sp, #4]
 800238e:	9003      	str	r0, [sp, #12]
 8002390:	9104      	str	r1, [sp, #16]
 8002392:	9105      	str	r1, [sp, #20]
 8002394:	9107      	str	r1, [sp, #28]
 8002396:	2001      	movs	r0, #1
 8002398:	f807 0c15 	strb.w	r0, [r7, #-21]
 800239c:	f817 0c15 	ldrb.w	r0, [r7, #-21]
 80023a0:	9108      	str	r1, [sp, #32]
 80023a2:	f000 0001 	and.w	r0, r0, #1
 80023a6:	f807 0c09 	strb.w	r0, [r7, #-9]
 80023aa:	f244 0114 	movw	r1, #16404	; 0x4014
 80023ae:	f6c0 0100 	movt	r1, #2048	; 0x800
 80023b2:	f7fe fee2 	bl	800117a <_ZN50_$LT$T$u20$as$u20$core..convert..Into$LT$U$GT$$GT$4into17h030525f954c9e9aeE>
 80023b6:	9901      	ldr	r1, [sp, #4]
 80023b8:	4602      	mov	r2, r0
 80023ba:	910a      	str	r1, [sp, #40]	; 0x28
 80023bc:	f807 2c01 	strb.w	r2, [r7, #-1]
 80023c0:	990a      	ldr	r1, [sp, #40]	; 0x28
 80023c2:	6808      	ldr	r0, [r1, #0]
 80023c4:	f020 7080 	bic.w	r0, r0, #16777216	; 0x1000000
 80023c8:	ea40 6002 	orr.w	r0, r0, r2, lsl #24
 80023cc:	6008      	str	r0, [r1, #0]
 80023ce:	980a      	ldr	r0, [sp, #40]	; 0x28
 80023d0:	b00c      	add	sp, #48	; 0x30
 80023d2:	bd80      	pop	{r7, pc}

080023d4 <_ZN16stm32f3xx_hal_v23rcc4CFGR6freeze28_$u7b$$u7b$closure$u7d$$u7d$17h680f6662b217a137E>:
 80023d4:	b580      	push	{r7, lr}
 80023d6:	466f      	mov	r7, sp
 80023d8:	b09c      	sub	sp, #112	; 0x70
 80023da:	9201      	str	r2, [sp, #4]
 80023dc:	460a      	mov	r2, r1
 80023de:	4601      	mov	r1, r0
 80023e0:	9801      	ldr	r0, [sp, #4]
 80023e2:	9104      	str	r1, [sp, #16]
 80023e4:	9206      	str	r2, [sp, #24]
 80023e6:	9007      	str	r0, [sp, #28]
 80023e8:	6809      	ldr	r1, [r1, #0]
 80023ea:	7809      	ldrb	r1, [r1, #0]
 80023ec:	f001 0101 	and.w	r1, r1, #1
 80023f0:	f7fe fea0 	bl	8001134 <_ZN16stm32f3xx_hal_v23rcc12usb_clocking10set_usbpre17hadc74204d84e6078E>
 80023f4:	9a01      	ldr	r2, [sp, #4]
 80023f6:	9804      	ldr	r0, [sp, #16]
 80023f8:	920b      	str	r2, [sp, #44]	; 0x2c
 80023fa:	6840      	ldr	r0, [r0, #4]
 80023fc:	7800      	ldrb	r0, [r0, #0]
 80023fe:	9218      	str	r2, [sp, #96]	; 0x60
 8002400:	f807 0c09 	strb.w	r0, [r7, #-9]
 8002404:	f244 01bc 	movw	r1, #16572	; 0x40bc
 8002408:	f6c0 0100 	movt	r1, #2048	; 0x800
 800240c:	f7fe feec 	bl	80011e8 <_ZN50_$LT$T$u20$as$u20$core..convert..Into$LT$U$GT$$GT$4into17h54b3afe1fd5999a1E>
 8002410:	9a01      	ldr	r2, [sp, #4]
 8002412:	4603      	mov	r3, r0
 8002414:	9804      	ldr	r0, [sp, #16]
 8002416:	921a      	str	r2, [sp, #104]	; 0x68
 8002418:	f807 3c01 	strb.w	r3, [r7, #-1]
 800241c:	9a1a      	ldr	r2, [sp, #104]	; 0x68
 800241e:	6811      	ldr	r1, [r2, #0]
 8002420:	f421 5160 	bic.w	r1, r1, #14336	; 0x3800
 8002424:	f003 0307 	and.w	r3, r3, #7
 8002428:	ea41 21c3 	orr.w	r1, r1, r3, lsl #11
 800242c:	6011      	str	r1, [r2, #0]
 800242e:	991a      	ldr	r1, [sp, #104]	; 0x68
 8002430:	9102      	str	r1, [sp, #8]
 8002432:	910a      	str	r1, [sp, #40]	; 0x28
 8002434:	6880      	ldr	r0, [r0, #8]
 8002436:	7800      	ldrb	r0, [r0, #0]
 8002438:	9114      	str	r1, [sp, #80]	; 0x50
 800243a:	f807 0c19 	strb.w	r0, [r7, #-25]
 800243e:	f244 01ac 	movw	r1, #16556	; 0x40ac
 8002442:	f6c0 0100 	movt	r1, #2048	; 0x800
 8002446:	f7fe fecf 	bl	80011e8 <_ZN50_$LT$T$u20$as$u20$core..convert..Into$LT$U$GT$$GT$4into17h54b3afe1fd5999a1E>
 800244a:	9902      	ldr	r1, [sp, #8]
 800244c:	4603      	mov	r3, r0
 800244e:	9804      	ldr	r0, [sp, #16]
 8002450:	9116      	str	r1, [sp, #88]	; 0x58
 8002452:	f807 3c11 	strb.w	r3, [r7, #-17]
 8002456:	9a16      	ldr	r2, [sp, #88]	; 0x58
 8002458:	6811      	ldr	r1, [r2, #0]
 800245a:	f421 61e0 	bic.w	r1, r1, #1792	; 0x700
 800245e:	f003 0307 	and.w	r3, r3, #7
 8002462:	ea41 2103 	orr.w	r1, r1, r3, lsl #8
 8002466:	6011      	str	r1, [r2, #0]
 8002468:	9916      	ldr	r1, [sp, #88]	; 0x58
 800246a:	9103      	str	r1, [sp, #12]
 800246c:	9109      	str	r1, [sp, #36]	; 0x24
 800246e:	68c0      	ldr	r0, [r0, #12]
 8002470:	7800      	ldrb	r0, [r0, #0]
 8002472:	9110      	str	r1, [sp, #64]	; 0x40
 8002474:	f807 0c29 	strb.w	r0, [r7, #-41]
 8002478:	f244 019c 	movw	r1, #16540	; 0x409c
 800247c:	f6c0 0100 	movt	r1, #2048	; 0x800
 8002480:	f7fe fed8 	bl	8001234 <_ZN50_$LT$T$u20$as$u20$core..convert..Into$LT$U$GT$$GT$4into17hb4c4155eaa2dcca5E>
 8002484:	9903      	ldr	r1, [sp, #12]
 8002486:	4603      	mov	r3, r0
 8002488:	9804      	ldr	r0, [sp, #16]
 800248a:	9112      	str	r1, [sp, #72]	; 0x48
 800248c:	f807 3c21 	strb.w	r3, [r7, #-33]
 8002490:	9a12      	ldr	r2, [sp, #72]	; 0x48
 8002492:	6811      	ldr	r1, [r2, #0]
 8002494:	f021 01f0 	bic.w	r1, r1, #240	; 0xf0
 8002498:	f003 030f 	and.w	r3, r3, #15
 800249c:	ea41 1103 	orr.w	r1, r1, r3, lsl #4
 80024a0:	6011      	str	r1, [r2, #0]
 80024a2:	9912      	ldr	r1, [sp, #72]	; 0x48
 80024a4:	9105      	str	r1, [sp, #20]
 80024a6:	9108      	str	r1, [sp, #32]
 80024a8:	6900      	ldr	r0, [r0, #16]
 80024aa:	7800      	ldrb	r0, [r0, #0]
 80024ac:	910c      	str	r1, [sp, #48]	; 0x30
 80024ae:	f807 0c39 	strb.w	r0, [r7, #-57]
 80024b2:	f244 018c 	movw	r1, #16524	; 0x408c
 80024b6:	f6c0 0100 	movt	r1, #2048	; 0x800
 80024ba:	f7fe fe9e 	bl	80011fa <_ZN50_$LT$T$u20$as$u20$core..convert..Into$LT$U$GT$$GT$4into17h65f1b4939c75fda0E>
 80024be:	4602      	mov	r2, r0
 80024c0:	9805      	ldr	r0, [sp, #20]
 80024c2:	900e      	str	r0, [sp, #56]	; 0x38
 80024c4:	f807 2c31 	strb.w	r2, [r7, #-49]
 80024c8:	990e      	ldr	r1, [sp, #56]	; 0x38
 80024ca:	6808      	ldr	r0, [r1, #0]
 80024cc:	f362 0001 	bfi	r0, r2, #0, #2
 80024d0:	6008      	str	r0, [r1, #0]
 80024d2:	980e      	ldr	r0, [sp, #56]	; 0x38
 80024d4:	b01c      	add	sp, #112	; 0x70
 80024d6:	bd80      	pop	{r7, pc}

080024d8 <_ZN16stm32f3xx_hal_v23rcc6Clocks5pclk117hb57b4508a8733e6aE>:
 80024d8:	b081      	sub	sp, #4
 80024da:	9000      	str	r0, [sp, #0]
 80024dc:	6840      	ldr	r0, [r0, #4]
 80024de:	b001      	add	sp, #4
 80024e0:	4770      	bx	lr

080024e2 <_ZN16stm32f3xx_hal_v23rcc6Clocks5ppre117h1b0b3404c2b51355E>:
 80024e2:	b081      	sub	sp, #4
 80024e4:	9000      	str	r0, [sp, #0]
 80024e6:	7c00      	ldrb	r0, [r0, #16]
 80024e8:	b001      	add	sp, #4
 80024ea:	4770      	bx	lr

080024ec <_ZN70_$LT$stm32f3xx_hal_v2..rcc..CFGR$u20$as$u20$core..default..Default$GT$7default17h7d7e3d2cb4941aceE>:
 80024ec:	b5f0      	push	{r4, r5, r6, r7, lr}
 80024ee:	af03      	add	r7, sp, #12
 80024f0:	e92d 0b00 	stmdb	sp!, {r8, r9, fp}
 80024f4:	b084      	sub	sp, #16
 80024f6:	9003      	str	r0, [sp, #12]
 80024f8:	f000 f86c 	bl	80025d4 <_ZN72_$LT$core..option..Option$LT$T$GT$$u20$as$u20$core..default..Default$GT$7default17hc2ffdea451235005E>
 80024fc:	4681      	mov	r9, r0
 80024fe:	4688      	mov	r8, r1
 8002500:	f000 f868 	bl	80025d4 <_ZN72_$LT$core..option..Option$LT$T$GT$$u20$as$u20$core..default..Default$GT$7default17hc2ffdea451235005E>
 8002504:	4606      	mov	r6, r0
 8002506:	460d      	mov	r5, r1
 8002508:	f000 f864 	bl	80025d4 <_ZN72_$LT$core..option..Option$LT$T$GT$$u20$as$u20$core..default..Default$GT$7default17hc2ffdea451235005E>
 800250c:	4604      	mov	r4, r0
 800250e:	9102      	str	r1, [sp, #8]
 8002510:	f000 f860 	bl	80025d4 <_ZN72_$LT$core..option..Option$LT$T$GT$$u20$as$u20$core..default..Default$GT$7default17hc2ffdea451235005E>
 8002514:	9000      	str	r0, [sp, #0]
 8002516:	9101      	str	r1, [sp, #4]
 8002518:	f000 f85c 	bl	80025d4 <_ZN72_$LT$core..option..Option$LT$T$GT$$u20$as$u20$core..default..Default$GT$7default17hc2ffdea451235005E>
 800251c:	f8dd c000 	ldr.w	ip, [sp]
 8002520:	9b01      	ldr	r3, [sp, #4]
 8002522:	f8dd e008 	ldr.w	lr, [sp, #8]
 8002526:	4602      	mov	r2, r0
 8002528:	9803      	ldr	r0, [sp, #12]
 800252a:	f8c0 9000 	str.w	r9, [r0]
 800252e:	f8c0 8004 	str.w	r8, [r0, #4]
 8002532:	f04f 0800 	mov.w	r8, #0
 8002536:	f880 8028 	strb.w	r8, [r0, #40]	; 0x28
 800253a:	f880 8029 	strb.w	r8, [r0, #41]	; 0x29
 800253e:	6086      	str	r6, [r0, #8]
 8002540:	60c5      	str	r5, [r0, #12]
 8002542:	6104      	str	r4, [r0, #16]
 8002544:	f8c0 e014 	str.w	lr, [r0, #20]
 8002548:	f8c0 c018 	str.w	ip, [r0, #24]
 800254c:	61c3      	str	r3, [r0, #28]
 800254e:	6202      	str	r2, [r0, #32]
 8002550:	6241      	str	r1, [r0, #36]	; 0x24
 8002552:	b004      	add	sp, #16
 8002554:	e8bd 0b00 	ldmia.w	sp!, {r8, r9, fp}
 8002558:	bdf0      	pop	{r4, r5, r6, r7, pc}

0800255a <_ZN77_$LT$stm32f3..stm32f303..TIM2$u20$as$u20$stm32f3xx_hal_v2..timer..PclkSrc$GT$7get_clk17h2f2aecc30dae4a68E>:
 800255a:	b580      	push	{r7, lr}
 800255c:	466f      	mov	r7, sp
 800255e:	b082      	sub	sp, #8
 8002560:	9001      	str	r0, [sp, #4]
 8002562:	f7ff ffb9 	bl	80024d8 <_ZN16stm32f3xx_hal_v23rcc6Clocks5pclk117hb57b4508a8733e6aE>
 8002566:	b002      	add	sp, #8
 8002568:	bd80      	pop	{r7, pc}

0800256a <_ZN50_$LT$T$u20$as$u20$core..convert..Into$LT$U$GT$$GT$4into17h86431373eeed5da2E>:
 800256a:	b081      	sub	sp, #4
 800256c:	2001      	movs	r0, #1
 800256e:	b001      	add	sp, #4
 8002570:	4770      	bx	lr

08002572 <_ZN50_$LT$T$u20$as$u20$core..convert..Into$LT$U$GT$$GT$4into17h0b5e878d35128e08E>:
 8002572:	b081      	sub	sp, #4
 8002574:	f88d 0002 	strb.w	r0, [sp, #2]
 8002578:	f88d 0003 	strb.w	r0, [sp, #3]
 800257c:	f89d 0003 	ldrb.w	r0, [sp, #3]
 8002580:	f000 0001 	and.w	r0, r0, #1
 8002584:	b001      	add	sp, #4
 8002586:	4770      	bx	lr

08002588 <_ZN4core6option15Option$LT$T$GT$7is_some17h2e457d7a010802c4E>:
 8002588:	b082      	sub	sp, #8
 800258a:	9001      	str	r0, [sp, #4]
 800258c:	6800      	ldr	r0, [r0, #0]
 800258e:	2801      	cmp	r0, #1
 8002590:	d104      	bne.n	800259c <_ZN4core6option15Option$LT$T$GT$7is_some17h2e457d7a010802c4E+0x14>
 8002592:	e7ff      	b.n	8002594 <_ZN4core6option15Option$LT$T$GT$7is_some17h2e457d7a010802c4E+0xc>
 8002594:	2001      	movs	r0, #1
 8002596:	f88d 0003 	strb.w	r0, [sp, #3]
 800259a:	e003      	b.n	80025a4 <_ZN4core6option15Option$LT$T$GT$7is_some17h2e457d7a010802c4E+0x1c>
 800259c:	2000      	movs	r0, #0
 800259e:	f88d 0003 	strb.w	r0, [sp, #3]
 80025a2:	e7ff      	b.n	80025a4 <_ZN4core6option15Option$LT$T$GT$7is_some17h2e457d7a010802c4E+0x1c>
 80025a4:	f89d 0003 	ldrb.w	r0, [sp, #3]
 80025a8:	f000 0001 	and.w	r0, r0, #1
 80025ac:	b002      	add	sp, #8
 80025ae:	4770      	bx	lr

080025b0 <_ZN4core6option15Option$LT$T$GT$9unwrap_or17h1307b45fbbdc3236E>:
 80025b0:	b086      	sub	sp, #24
 80025b2:	9200      	str	r2, [sp, #0]
 80025b4:	9001      	str	r0, [sp, #4]
 80025b6:	9102      	str	r1, [sp, #8]
 80025b8:	9204      	str	r2, [sp, #16]
 80025ba:	9801      	ldr	r0, [sp, #4]
 80025bc:	b918      	cbnz	r0, 80025c6 <_ZN4core6option15Option$LT$T$GT$9unwrap_or17h1307b45fbbdc3236E+0x16>
 80025be:	e7ff      	b.n	80025c0 <_ZN4core6option15Option$LT$T$GT$9unwrap_or17h1307b45fbbdc3236E+0x10>
 80025c0:	9800      	ldr	r0, [sp, #0]
 80025c2:	9003      	str	r0, [sp, #12]
 80025c4:	e003      	b.n	80025ce <_ZN4core6option15Option$LT$T$GT$9unwrap_or17h1307b45fbbdc3236E+0x1e>
 80025c6:	9802      	ldr	r0, [sp, #8]
 80025c8:	9005      	str	r0, [sp, #20]
 80025ca:	9003      	str	r0, [sp, #12]
 80025cc:	e7ff      	b.n	80025ce <_ZN4core6option15Option$LT$T$GT$9unwrap_or17h1307b45fbbdc3236E+0x1e>
 80025ce:	9803      	ldr	r0, [sp, #12]
 80025d0:	b006      	add	sp, #24
 80025d2:	4770      	bx	lr

080025d4 <_ZN72_$LT$core..option..Option$LT$T$GT$$u20$as$u20$core..default..Default$GT$7default17hc2ffdea451235005E>:
 80025d4:	b082      	sub	sp, #8
 80025d6:	2000      	movs	r0, #0
 80025d8:	9000      	str	r0, [sp, #0]
 80025da:	9800      	ldr	r0, [sp, #0]
 80025dc:	9901      	ldr	r1, [sp, #4]
 80025de:	b002      	add	sp, #8
 80025e0:	4770      	bx	lr

080025e2 <_ZN2r08zero_bss17hff5248be5a666d9cE>:
 80025e2:	b580      	push	{r7, lr}
 80025e4:	466f      	mov	r7, sp
 80025e6:	b092      	sub	sp, #72	; 0x48
 80025e8:	9104      	str	r1, [sp, #16]
 80025ea:	9005      	str	r0, [sp, #20]
 80025ec:	9106      	str	r1, [sp, #24]
 80025ee:	e7ff      	b.n	80025f0 <_ZN2r08zero_bss17hff5248be5a666d9cE+0xe>
 80025f0:	9904      	ldr	r1, [sp, #16]
 80025f2:	9805      	ldr	r0, [sp, #20]
 80025f4:	4288      	cmp	r0, r1
 80025f6:	d302      	bcc.n	80025fe <_ZN2r08zero_bss17hff5248be5a666d9cE+0x1c>
 80025f8:	e7ff      	b.n	80025fa <_ZN2r08zero_bss17hff5248be5a666d9cE+0x18>
 80025fa:	b012      	add	sp, #72	; 0x48
 80025fc:	bd80      	pop	{r7, pc}
 80025fe:	9805      	ldr	r0, [sp, #20]
 8002600:	9002      	str	r0, [sp, #8]
 8002602:	2100      	movs	r1, #0
 8002604:	9101      	str	r1, [sp, #4]
 8002606:	f807 1c29 	strb.w	r1, [r7, #-41]
 800260a:	2001      	movs	r0, #1
 800260c:	9003      	str	r0, [sp, #12]
 800260e:	9008      	str	r0, [sp, #32]
 8002610:	f807 1c21 	strb.w	r1, [r7, #-33]
 8002614:	900a      	str	r0, [sp, #40]	; 0x28
 8002616:	a80b      	add	r0, sp, #44	; 0x2c
 8002618:	900c      	str	r0, [sp, #48]	; 0x30
 800261a:	900d      	str	r0, [sp, #52]	; 0x34
 800261c:	2104      	movs	r1, #4
 800261e:	f000 f833 	bl	8002688 <_ZN4core10intrinsics11write_bytes18precondition_check17he133b4c6cda70e59E>
 8002622:	9901      	ldr	r1, [sp, #4]
 8002624:	9802      	ldr	r0, [sp, #8]
 8002626:	910b      	str	r1, [sp, #44]	; 0x2c
 8002628:	990b      	ldr	r1, [sp, #44]	; 0x2c
 800262a:	910e      	str	r1, [sp, #56]	; 0x38
 800262c:	910f      	str	r1, [sp, #60]	; 0x3c
 800262e:	f000 f87f 	bl	8002730 <_ZN4core3ptr14write_volatile17h7682d87e9740cdf5E>
 8002632:	9903      	ldr	r1, [sp, #12]
 8002634:	9805      	ldr	r0, [sp, #20]
 8002636:	9010      	str	r0, [sp, #64]	; 0x40
 8002638:	9111      	str	r1, [sp, #68]	; 0x44
 800263a:	3004      	adds	r0, #4
 800263c:	9005      	str	r0, [sp, #20]
 800263e:	e7d7      	b.n	80025f0 <_ZN2r08zero_bss17hff5248be5a666d9cE+0xe>

08002640 <_ZN2r09init_data17h19dee7516a6ecc4eE>:
 8002640:	b580      	push	{r7, lr}
 8002642:	466f      	mov	r7, sp
 8002644:	b08a      	sub	sp, #40	; 0x28
 8002646:	9102      	str	r1, [sp, #8]
 8002648:	9003      	str	r0, [sp, #12]
 800264a:	9204      	str	r2, [sp, #16]
 800264c:	9105      	str	r1, [sp, #20]
 800264e:	e7ff      	b.n	8002650 <_ZN2r09init_data17h19dee7516a6ecc4eE+0x10>
 8002650:	9902      	ldr	r1, [sp, #8]
 8002652:	9803      	ldr	r0, [sp, #12]
 8002654:	4288      	cmp	r0, r1
 8002656:	d302      	bcc.n	800265e <_ZN2r09init_data17h19dee7516a6ecc4eE+0x1e>
 8002658:	e7ff      	b.n	800265a <_ZN2r09init_data17h19dee7516a6ecc4eE+0x1a>
 800265a:	b00a      	add	sp, #40	; 0x28
 800265c:	bd80      	pop	{r7, pc}
 800265e:	9803      	ldr	r0, [sp, #12]
 8002660:	9001      	str	r0, [sp, #4]
 8002662:	9804      	ldr	r0, [sp, #16]
 8002664:	f000 f8cb 	bl	80027fe <_ZN4core3ptr4read17haf1cbc639f7eae31E>
 8002668:	4601      	mov	r1, r0
 800266a:	9801      	ldr	r0, [sp, #4]
 800266c:	f000 f8cc 	bl	8002808 <_ZN4core3ptr5write17hcce88da679282d8aE>
 8002670:	9803      	ldr	r0, [sp, #12]
 8002672:	9006      	str	r0, [sp, #24]
 8002674:	2101      	movs	r1, #1
 8002676:	9107      	str	r1, [sp, #28]
 8002678:	3004      	adds	r0, #4
 800267a:	9003      	str	r0, [sp, #12]
 800267c:	9804      	ldr	r0, [sp, #16]
 800267e:	9008      	str	r0, [sp, #32]
 8002680:	9109      	str	r1, [sp, #36]	; 0x24
 8002682:	3004      	adds	r0, #4
 8002684:	9004      	str	r0, [sp, #16]
 8002686:	e7e3      	b.n	8002650 <_ZN2r09init_data17h19dee7516a6ecc4eE+0x10>

08002688 <_ZN4core10intrinsics11write_bytes18precondition_check17he133b4c6cda70e59E>:
 8002688:	b580      	push	{r7, lr}
 800268a:	466f      	mov	r7, sp
 800268c:	b08e      	sub	sp, #56	; 0x38
 800268e:	9101      	str	r1, [sp, #4]
 8002690:	f244 525c 	movw	r2, #17756	; 0x455c
 8002694:	f6c0 0200 	movt	r2, #2048	; 0x800
 8002698:	9203      	str	r2, [sp, #12]
 800269a:	900a      	str	r0, [sp, #40]	; 0x28
 800269c:	910b      	str	r1, [sp, #44]	; 0x2c
 800269e:	900c      	str	r0, [sp, #48]	; 0x30
 80026a0:	4601      	mov	r1, r0
 80026a2:	9102      	str	r1, [sp, #8]
 80026a4:	b908      	cbnz	r0, 80026aa <_ZN4core10intrinsics11write_bytes18precondition_check17he133b4c6cda70e59E+0x22>
 80026a6:	e7ff      	b.n	80026a8 <_ZN4core10intrinsics11write_bytes18precondition_check17he133b4c6cda70e59E+0x20>
 80026a8:	e019      	b.n	80026de <_ZN4core10intrinsics11write_bytes18precondition_check17he133b4c6cda70e59E+0x56>
 80026aa:	9801      	ldr	r0, [sp, #4]
 80026ac:	f04f 3155 	mov.w	r1, #1431655765	; 0x55555555
 80026b0:	ea01 0150 	and.w	r1, r1, r0, lsr #1
 80026b4:	1a40      	subs	r0, r0, r1
 80026b6:	f04f 3133 	mov.w	r1, #858993459	; 0x33333333
 80026ba:	ea01 0190 	and.w	r1, r1, r0, lsr #2
 80026be:	f020 30cc 	bic.w	r0, r0, #3435973836	; 0xcccccccc
 80026c2:	4408      	add	r0, r1
 80026c4:	eb00 1010 	add.w	r0, r0, r0, lsr #4
 80026c8:	f020 30f0 	bic.w	r0, r0, #4042322160	; 0xf0f0f0f0
 80026cc:	f04f 3101 	mov.w	r1, #16843009	; 0x1010101
 80026d0:	4348      	muls	r0, r1
 80026d2:	0e00      	lsrs	r0, r0, #24
 80026d4:	900d      	str	r0, [sp, #52]	; 0x34
 80026d6:	980d      	ldr	r0, [sp, #52]	; 0x34
 80026d8:	2801      	cmp	r0, #1
 80026da:	d007      	beq.n	80026ec <_ZN4core10intrinsics11write_bytes18precondition_check17he133b4c6cda70e59E+0x64>
 80026dc:	e00c      	b.n	80026f8 <_ZN4core10intrinsics11write_bytes18precondition_check17he133b4c6cda70e59E+0x70>
 80026de:	f244 5064 	movw	r0, #17764	; 0x4564
 80026e2:	f6c0 0000 	movt	r0, #2048	; 0x800
 80026e6:	216f      	movs	r1, #111	; 0x6f
 80026e8:	f000 fabe 	bl	8002c68 <_ZN4core9panicking14panic_nounwind17h6250df33aaa81432E>
 80026ec:	9802      	ldr	r0, [sp, #8]
 80026ee:	9901      	ldr	r1, [sp, #4]
 80026f0:	3901      	subs	r1, #1
 80026f2:	4208      	tst	r0, r1
 80026f4:	d01a      	beq.n	800272c <_ZN4core10intrinsics11write_bytes18precondition_check17he133b4c6cda70e59E+0xa4>
 80026f6:	e7f2      	b.n	80026de <_ZN4core10intrinsics11write_bytes18precondition_check17he133b4c6cda70e59E+0x56>
 80026f8:	f244 505c 	movw	r0, #17756	; 0x455c
 80026fc:	f6c0 0000 	movt	r0, #2048	; 0x800
 8002700:	9004      	str	r0, [sp, #16]
 8002702:	2001      	movs	r0, #1
 8002704:	9005      	str	r0, [sp, #20]
 8002706:	f244 50d4 	movw	r0, #17876	; 0x45d4
 800270a:	f6c0 0000 	movt	r0, #2048	; 0x800
 800270e:	6801      	ldr	r1, [r0, #0]
 8002710:	6840      	ldr	r0, [r0, #4]
 8002712:	9108      	str	r1, [sp, #32]
 8002714:	9009      	str	r0, [sp, #36]	; 0x24
 8002716:	2004      	movs	r0, #4
 8002718:	9006      	str	r0, [sp, #24]
 800271a:	2000      	movs	r0, #0
 800271c:	9007      	str	r0, [sp, #28]
 800271e:	f244 6130 	movw	r1, #17968	; 0x4630
 8002722:	f6c0 0100 	movt	r1, #2048	; 0x800
 8002726:	a804      	add	r0, sp, #16
 8002728:	f000 fa69 	bl	8002bfe <_ZN4core9panicking9panic_fmt17h1f6c43f1b09e8ccbE>
 800272c:	b00e      	add	sp, #56	; 0x38
 800272e:	bd80      	pop	{r7, pc}

08002730 <_ZN4core3ptr14write_volatile17h7682d87e9740cdf5E>:
 8002730:	b580      	push	{r7, lr}
 8002732:	466f      	mov	r7, sp
 8002734:	b084      	sub	sp, #16
 8002736:	9100      	str	r1, [sp, #0]
 8002738:	9001      	str	r0, [sp, #4]
 800273a:	9002      	str	r0, [sp, #8]
 800273c:	9103      	str	r1, [sp, #12]
 800273e:	e7ff      	b.n	8002740 <_ZN4core3ptr14write_volatile17h7682d87e9740cdf5E+0x10>
 8002740:	9801      	ldr	r0, [sp, #4]
 8002742:	2104      	movs	r1, #4
 8002744:	f000 f806 	bl	8002754 <_ZN4core3ptr14write_volatile18precondition_check17hb908be13817a9dbdE>
 8002748:	e7ff      	b.n	800274a <_ZN4core3ptr14write_volatile17h7682d87e9740cdf5E+0x1a>
 800274a:	9800      	ldr	r0, [sp, #0]
 800274c:	9901      	ldr	r1, [sp, #4]
 800274e:	6008      	str	r0, [r1, #0]
 8002750:	b004      	add	sp, #16
 8002752:	bd80      	pop	{r7, pc}

08002754 <_ZN4core3ptr14write_volatile18precondition_check17hb908be13817a9dbdE>:
 8002754:	b580      	push	{r7, lr}
 8002756:	466f      	mov	r7, sp
 8002758:	b08e      	sub	sp, #56	; 0x38
 800275a:	9100      	str	r1, [sp, #0]
 800275c:	f244 525c 	movw	r2, #17756	; 0x455c
 8002760:	f6c0 0200 	movt	r2, #2048	; 0x800
 8002764:	9202      	str	r2, [sp, #8]
 8002766:	9009      	str	r0, [sp, #36]	; 0x24
 8002768:	910a      	str	r1, [sp, #40]	; 0x28
 800276a:	900b      	str	r0, [sp, #44]	; 0x2c
 800276c:	900c      	str	r0, [sp, #48]	; 0x30
 800276e:	4601      	mov	r1, r0
 8002770:	9101      	str	r1, [sp, #4]
 8002772:	b908      	cbnz	r0, 8002778 <_ZN4core3ptr14write_volatile18precondition_check17hb908be13817a9dbdE+0x24>
 8002774:	e7ff      	b.n	8002776 <_ZN4core3ptr14write_volatile18precondition_check17hb908be13817a9dbdE+0x22>
 8002776:	e019      	b.n	80027ac <_ZN4core3ptr14write_volatile18precondition_check17hb908be13817a9dbdE+0x58>
 8002778:	9800      	ldr	r0, [sp, #0]
 800277a:	f04f 3155 	mov.w	r1, #1431655765	; 0x55555555
 800277e:	ea01 0150 	and.w	r1, r1, r0, lsr #1
 8002782:	1a40      	subs	r0, r0, r1
 8002784:	f04f 3133 	mov.w	r1, #858993459	; 0x33333333
 8002788:	ea01 0190 	and.w	r1, r1, r0, lsr #2
 800278c:	f020 30cc 	bic.w	r0, r0, #3435973836	; 0xcccccccc
 8002790:	4408      	add	r0, r1
 8002792:	eb00 1010 	add.w	r0, r0, r0, lsr #4
 8002796:	f020 30f0 	bic.w	r0, r0, #4042322160	; 0xf0f0f0f0
 800279a:	f04f 3101 	mov.w	r1, #16843009	; 0x1010101
 800279e:	4348      	muls	r0, r1
 80027a0:	0e00      	lsrs	r0, r0, #24
 80027a2:	900d      	str	r0, [sp, #52]	; 0x34
 80027a4:	980d      	ldr	r0, [sp, #52]	; 0x34
 80027a6:	2801      	cmp	r0, #1
 80027a8:	d007      	beq.n	80027ba <_ZN4core3ptr14write_volatile18precondition_check17hb908be13817a9dbdE+0x66>
 80027aa:	e00c      	b.n	80027c6 <_ZN4core3ptr14write_volatile18precondition_check17hb908be13817a9dbdE+0x72>
 80027ac:	f244 6040 	movw	r0, #17984	; 0x4640
 80027b0:	f6c0 0000 	movt	r0, #2048	; 0x800
 80027b4:	216f      	movs	r1, #111	; 0x6f
 80027b6:	f000 fa57 	bl	8002c68 <_ZN4core9panicking14panic_nounwind17h6250df33aaa81432E>
 80027ba:	9801      	ldr	r0, [sp, #4]
 80027bc:	9900      	ldr	r1, [sp, #0]
 80027be:	3901      	subs	r1, #1
 80027c0:	4208      	tst	r0, r1
 80027c2:	d01a      	beq.n	80027fa <_ZN4core3ptr14write_volatile18precondition_check17hb908be13817a9dbdE+0xa6>
 80027c4:	e7f2      	b.n	80027ac <_ZN4core3ptr14write_volatile18precondition_check17hb908be13817a9dbdE+0x58>
 80027c6:	f244 505c 	movw	r0, #17756	; 0x455c
 80027ca:	f6c0 0000 	movt	r0, #2048	; 0x800
 80027ce:	9003      	str	r0, [sp, #12]
 80027d0:	2001      	movs	r0, #1
 80027d2:	9004      	str	r0, [sp, #16]
 80027d4:	f244 50d4 	movw	r0, #17876	; 0x45d4
 80027d8:	f6c0 0000 	movt	r0, #2048	; 0x800
 80027dc:	6801      	ldr	r1, [r0, #0]
 80027de:	6840      	ldr	r0, [r0, #4]
 80027e0:	9107      	str	r1, [sp, #28]
 80027e2:	9008      	str	r0, [sp, #32]
 80027e4:	2004      	movs	r0, #4
 80027e6:	9005      	str	r0, [sp, #20]
 80027e8:	2000      	movs	r0, #0
 80027ea:	9006      	str	r0, [sp, #24]
 80027ec:	f244 6130 	movw	r1, #17968	; 0x4630
 80027f0:	f6c0 0100 	movt	r1, #2048	; 0x800
 80027f4:	a803      	add	r0, sp, #12
 80027f6:	f000 fa02 	bl	8002bfe <_ZN4core9panicking9panic_fmt17h1f6c43f1b09e8ccbE>
 80027fa:	b00e      	add	sp, #56	; 0x38
 80027fc:	bd80      	pop	{r7, pc}

080027fe <_ZN4core3ptr4read17haf1cbc639f7eae31E>:
 80027fe:	b081      	sub	sp, #4
 8002800:	9000      	str	r0, [sp, #0]
 8002802:	6800      	ldr	r0, [r0, #0]
 8002804:	b001      	add	sp, #4
 8002806:	4770      	bx	lr

08002808 <_ZN4core3ptr5write17hcce88da679282d8aE>:
 8002808:	b082      	sub	sp, #8
 800280a:	9000      	str	r0, [sp, #0]
 800280c:	9101      	str	r1, [sp, #4]
 800280e:	6001      	str	r1, [r0, #0]
 8002810:	b002      	add	sp, #8
 8002812:	4770      	bx	lr

08002814 <_ZN4core4sync6atomic14compiler_fence17h2217b85b7f66ee30E>:
 8002814:	b580      	push	{r7, lr}
 8002816:	466f      	mov	r7, sp
 8002818:	b08a      	sub	sp, #40	; 0x28
 800281a:	f244 61e4 	movw	r1, #18148	; 0x46e4
 800281e:	f6c0 0100 	movt	r1, #2048	; 0x800
 8002822:	9102      	str	r1, [sp, #8]
 8002824:	f807 0c19 	strb.w	r0, [r7, #-25]
 8002828:	f817 0c19 	ldrb.w	r0, [r7, #-25]
 800282c:	9001      	str	r0, [sp, #4]
 800282e:	9901      	ldr	r1, [sp, #4]
 8002830:	e8df f001 	tbb	[pc, r1]
 8002834:	201f1e04 	.word	0x201f1e04
 8002838:	0021      	.short	0x0021
 800283a:	defe      	udf	#254	; 0xfe
 800283c:	f244 60e4 	movw	r0, #18148	; 0x46e4
 8002840:	f6c0 0000 	movt	r0, #2048	; 0x800
 8002844:	9004      	str	r0, [sp, #16]
 8002846:	2001      	movs	r0, #1
 8002848:	9005      	str	r0, [sp, #20]
 800284a:	f244 50d4 	movw	r0, #17876	; 0x45d4
 800284e:	f6c0 0000 	movt	r0, #2048	; 0x800
 8002852:	6801      	ldr	r1, [r0, #0]
 8002854:	6840      	ldr	r0, [r0, #4]
 8002856:	9108      	str	r1, [sp, #32]
 8002858:	9009      	str	r0, [sp, #36]	; 0x24
 800285a:	2004      	movs	r0, #4
 800285c:	9006      	str	r0, [sp, #24]
 800285e:	2000      	movs	r0, #0
 8002860:	9007      	str	r0, [sp, #28]
 8002862:	f244 713c 	movw	r1, #18236	; 0x473c
 8002866:	f6c0 0100 	movt	r1, #2048	; 0x800
 800286a:	a804      	add	r0, sp, #16
 800286c:	f000 f9c7 	bl	8002bfe <_ZN4core9panicking9panic_fmt17h1f6c43f1b09e8ccbE>
 8002870:	e002      	b.n	8002878 <_ZN4core4sync6atomic14compiler_fence17h2217b85b7f66ee30E+0x64>
 8002872:	e001      	b.n	8002878 <_ZN4core4sync6atomic14compiler_fence17h2217b85b7f66ee30E+0x64>
 8002874:	e000      	b.n	8002878 <_ZN4core4sync6atomic14compiler_fence17h2217b85b7f66ee30E+0x64>
 8002876:	e7ff      	b.n	8002878 <_ZN4core4sync6atomic14compiler_fence17h2217b85b7f66ee30E+0x64>
 8002878:	b00a      	add	sp, #40	; 0x28
 800287a:	bd80      	pop	{r7, pc}

0800287c <ResetTrampoline>:
 800287c:	b580      	push	{r7, lr}
 800287e:	466f      	mov	r7, sp
 8002880:	f7fd fd47 	bl	8000312 <main>

08002884 <DefaultHandler_>:
 8002884:	b580      	push	{r7, lr}
 8002886:	466f      	mov	r7, sp
 8002888:	b082      	sub	sp, #8
 800288a:	e7ff      	b.n	800288c <DefaultHandler_+0x8>
 800288c:	2004      	movs	r0, #4
 800288e:	f807 0c01 	strb.w	r0, [r7, #-1]
 8002892:	f817 0c01 	ldrb.w	r0, [r7, #-1]
 8002896:	f7ff ffbd 	bl	8002814 <_ZN4core4sync6atomic14compiler_fence17h2217b85b7f66ee30E>
 800289a:	e7f7      	b.n	800288c <DefaultHandler_+0x8>

0800289c <DefaultPreInit>:
 800289c:	4770      	bx	lr

0800289e <_ZN4core3ptr13read_volatile17h6d6580fa05e6f41aE>:
 800289e:	b580      	push	{r7, lr}
 80028a0:	466f      	mov	r7, sp
 80028a2:	b084      	sub	sp, #16
 80028a4:	9001      	str	r0, [sp, #4]
 80028a6:	9002      	str	r0, [sp, #8]
 80028a8:	e7ff      	b.n	80028aa <_ZN4core3ptr13read_volatile17h6d6580fa05e6f41aE+0xc>
 80028aa:	9801      	ldr	r0, [sp, #4]
 80028ac:	2104      	movs	r1, #4
 80028ae:	f000 f807 	bl	80028c0 <_ZN4core3ptr13read_volatile18precondition_check17he2312c761f01efd8E>
 80028b2:	e7ff      	b.n	80028b4 <_ZN4core3ptr13read_volatile17h6d6580fa05e6f41aE+0x16>
 80028b4:	9801      	ldr	r0, [sp, #4]
 80028b6:	6800      	ldr	r0, [r0, #0]
 80028b8:	9003      	str	r0, [sp, #12]
 80028ba:	9803      	ldr	r0, [sp, #12]
 80028bc:	b004      	add	sp, #16
 80028be:	bd80      	pop	{r7, pc}

080028c0 <_ZN4core3ptr13read_volatile18precondition_check17he2312c761f01efd8E>:
 80028c0:	b580      	push	{r7, lr}
 80028c2:	466f      	mov	r7, sp
 80028c4:	b08e      	sub	sp, #56	; 0x38
 80028c6:	9101      	str	r1, [sp, #4]
 80028c8:	f244 7278 	movw	r2, #18296	; 0x4778
 80028cc:	f6c0 0200 	movt	r2, #2048	; 0x800
 80028d0:	9203      	str	r2, [sp, #12]
 80028d2:	900a      	str	r0, [sp, #40]	; 0x28
 80028d4:	910b      	str	r1, [sp, #44]	; 0x2c
 80028d6:	900c      	str	r0, [sp, #48]	; 0x30
 80028d8:	4601      	mov	r1, r0
 80028da:	9102      	str	r1, [sp, #8]
 80028dc:	b908      	cbnz	r0, 80028e2 <_ZN4core3ptr13read_volatile18precondition_check17he2312c761f01efd8E+0x22>
 80028de:	e7ff      	b.n	80028e0 <_ZN4core3ptr13read_volatile18precondition_check17he2312c761f01efd8E+0x20>
 80028e0:	e019      	b.n	8002916 <_ZN4core3ptr13read_volatile18precondition_check17he2312c761f01efd8E+0x56>
 80028e2:	9801      	ldr	r0, [sp, #4]
 80028e4:	f04f 3155 	mov.w	r1, #1431655765	; 0x55555555
 80028e8:	ea01 0150 	and.w	r1, r1, r0, lsr #1
 80028ec:	1a40      	subs	r0, r0, r1
 80028ee:	f04f 3133 	mov.w	r1, #858993459	; 0x33333333
 80028f2:	ea01 0190 	and.w	r1, r1, r0, lsr #2
 80028f6:	f020 30cc 	bic.w	r0, r0, #3435973836	; 0xcccccccc
 80028fa:	4408      	add	r0, r1
 80028fc:	eb00 1010 	add.w	r0, r0, r0, lsr #4
 8002900:	f020 30f0 	bic.w	r0, r0, #4042322160	; 0xf0f0f0f0
 8002904:	f04f 3101 	mov.w	r1, #16843009	; 0x1010101
 8002908:	4348      	muls	r0, r1
 800290a:	0e00      	lsrs	r0, r0, #24
 800290c:	900d      	str	r0, [sp, #52]	; 0x34
 800290e:	980d      	ldr	r0, [sp, #52]	; 0x34
 8002910:	2801      	cmp	r0, #1
 8002912:	d007      	beq.n	8002924 <_ZN4core3ptr13read_volatile18precondition_check17he2312c761f01efd8E+0x64>
 8002914:	e00c      	b.n	8002930 <_ZN4core3ptr13read_volatile18precondition_check17he2312c761f01efd8E+0x70>
 8002916:	f244 7080 	movw	r0, #18304	; 0x4780
 800291a:	f6c0 0000 	movt	r0, #2048	; 0x800
 800291e:	216e      	movs	r1, #110	; 0x6e
 8002920:	f000 f9a2 	bl	8002c68 <_ZN4core9panicking14panic_nounwind17h6250df33aaa81432E>
 8002924:	9802      	ldr	r0, [sp, #8]
 8002926:	9901      	ldr	r1, [sp, #4]
 8002928:	3901      	subs	r1, #1
 800292a:	4208      	tst	r0, r1
 800292c:	d01a      	beq.n	8002964 <_ZN4core3ptr13read_volatile18precondition_check17he2312c761f01efd8E+0xa4>
 800292e:	e7f2      	b.n	8002916 <_ZN4core3ptr13read_volatile18precondition_check17he2312c761f01efd8E+0x56>
 8002930:	f244 7078 	movw	r0, #18296	; 0x4778
 8002934:	f6c0 0000 	movt	r0, #2048	; 0x800
 8002938:	9004      	str	r0, [sp, #16]
 800293a:	2001      	movs	r0, #1
 800293c:	9005      	str	r0, [sp, #20]
 800293e:	f244 50d4 	movw	r0, #17876	; 0x45d4
 8002942:	f6c0 0000 	movt	r0, #2048	; 0x800
 8002946:	6801      	ldr	r1, [r0, #0]
 8002948:	6840      	ldr	r0, [r0, #4]
 800294a:	9108      	str	r1, [sp, #32]
 800294c:	9009      	str	r0, [sp, #36]	; 0x24
 800294e:	2004      	movs	r0, #4
 8002950:	9006      	str	r0, [sp, #24]
 8002952:	2000      	movs	r0, #0
 8002954:	9007      	str	r0, [sp, #28]
 8002956:	f644 0140 	movw	r1, #18496	; 0x4840
 800295a:	f6c0 0100 	movt	r1, #2048	; 0x800
 800295e:	a804      	add	r0, sp, #16
 8002960:	f000 f94d 	bl	8002bfe <_ZN4core9panicking9panic_fmt17h1f6c43f1b09e8ccbE>
 8002964:	b00e      	add	sp, #56	; 0x38
 8002966:	bd80      	pop	{r7, pc}

08002968 <_ZN4core3ptr14write_volatile17ha91faba4b6935fe1E>:
 8002968:	b580      	push	{r7, lr}
 800296a:	466f      	mov	r7, sp
 800296c:	b084      	sub	sp, #16
 800296e:	9100      	str	r1, [sp, #0]
 8002970:	9001      	str	r0, [sp, #4]
 8002972:	9002      	str	r0, [sp, #8]
 8002974:	9103      	str	r1, [sp, #12]
 8002976:	e7ff      	b.n	8002978 <_ZN4core3ptr14write_volatile17ha91faba4b6935fe1E+0x10>
 8002978:	9801      	ldr	r0, [sp, #4]
 800297a:	2104      	movs	r1, #4
 800297c:	f000 f806 	bl	800298c <_ZN4core3ptr14write_volatile18precondition_check17h714196cb6c9f0394E>
 8002980:	e7ff      	b.n	8002982 <_ZN4core3ptr14write_volatile17ha91faba4b6935fe1E+0x1a>
 8002982:	9800      	ldr	r0, [sp, #0]
 8002984:	9901      	ldr	r1, [sp, #4]
 8002986:	6008      	str	r0, [r1, #0]
 8002988:	b004      	add	sp, #16
 800298a:	bd80      	pop	{r7, pc}

0800298c <_ZN4core3ptr14write_volatile18precondition_check17h714196cb6c9f0394E>:
 800298c:	b580      	push	{r7, lr}
 800298e:	466f      	mov	r7, sp
 8002990:	b08e      	sub	sp, #56	; 0x38
 8002992:	9100      	str	r1, [sp, #0]
 8002994:	f244 7278 	movw	r2, #18296	; 0x4778
 8002998:	f6c0 0200 	movt	r2, #2048	; 0x800
 800299c:	9202      	str	r2, [sp, #8]
 800299e:	9009      	str	r0, [sp, #36]	; 0x24
 80029a0:	910a      	str	r1, [sp, #40]	; 0x28
 80029a2:	900b      	str	r0, [sp, #44]	; 0x2c
 80029a4:	900c      	str	r0, [sp, #48]	; 0x30
 80029a6:	4601      	mov	r1, r0
 80029a8:	9101      	str	r1, [sp, #4]
 80029aa:	b908      	cbnz	r0, 80029b0 <_ZN4core3ptr14write_volatile18precondition_check17h714196cb6c9f0394E+0x24>
 80029ac:	e7ff      	b.n	80029ae <_ZN4core3ptr14write_volatile18precondition_check17h714196cb6c9f0394E+0x22>
 80029ae:	e019      	b.n	80029e4 <_ZN4core3ptr14write_volatile18precondition_check17h714196cb6c9f0394E+0x58>
 80029b0:	9800      	ldr	r0, [sp, #0]
 80029b2:	f04f 3155 	mov.w	r1, #1431655765	; 0x55555555
 80029b6:	ea01 0150 	and.w	r1, r1, r0, lsr #1
 80029ba:	1a40      	subs	r0, r0, r1
 80029bc:	f04f 3133 	mov.w	r1, #858993459	; 0x33333333
 80029c0:	ea01 0190 	and.w	r1, r1, r0, lsr #2
 80029c4:	f020 30cc 	bic.w	r0, r0, #3435973836	; 0xcccccccc
 80029c8:	4408      	add	r0, r1
 80029ca:	eb00 1010 	add.w	r0, r0, r0, lsr #4
 80029ce:	f020 30f0 	bic.w	r0, r0, #4042322160	; 0xf0f0f0f0
 80029d2:	f04f 3101 	mov.w	r1, #16843009	; 0x1010101
 80029d6:	4348      	muls	r0, r1
 80029d8:	0e00      	lsrs	r0, r0, #24
 80029da:	900d      	str	r0, [sp, #52]	; 0x34
 80029dc:	980d      	ldr	r0, [sp, #52]	; 0x34
 80029de:	2801      	cmp	r0, #1
 80029e0:	d007      	beq.n	80029f2 <_ZN4core3ptr14write_volatile18precondition_check17h714196cb6c9f0394E+0x66>
 80029e2:	e00c      	b.n	80029fe <_ZN4core3ptr14write_volatile18precondition_check17h714196cb6c9f0394E+0x72>
 80029e4:	f644 0050 	movw	r0, #18512	; 0x4850
 80029e8:	f6c0 0000 	movt	r0, #2048	; 0x800
 80029ec:	216f      	movs	r1, #111	; 0x6f
 80029ee:	f000 f93b 	bl	8002c68 <_ZN4core9panicking14panic_nounwind17h6250df33aaa81432E>
 80029f2:	9801      	ldr	r0, [sp, #4]
 80029f4:	9900      	ldr	r1, [sp, #0]
 80029f6:	3901      	subs	r1, #1
 80029f8:	4208      	tst	r0, r1
 80029fa:	d01a      	beq.n	8002a32 <_ZN4core3ptr14write_volatile18precondition_check17h714196cb6c9f0394E+0xa6>
 80029fc:	e7f2      	b.n	80029e4 <_ZN4core3ptr14write_volatile18precondition_check17h714196cb6c9f0394E+0x58>
 80029fe:	f244 7078 	movw	r0, #18296	; 0x4778
 8002a02:	f6c0 0000 	movt	r0, #2048	; 0x800
 8002a06:	9003      	str	r0, [sp, #12]
 8002a08:	2001      	movs	r0, #1
 8002a0a:	9004      	str	r0, [sp, #16]
 8002a0c:	f244 50d4 	movw	r0, #17876	; 0x45d4
 8002a10:	f6c0 0000 	movt	r0, #2048	; 0x800
 8002a14:	6801      	ldr	r1, [r0, #0]
 8002a16:	6840      	ldr	r0, [r0, #4]
 8002a18:	9107      	str	r1, [sp, #28]
 8002a1a:	9008      	str	r0, [sp, #32]
 8002a1c:	2004      	movs	r0, #4
 8002a1e:	9005      	str	r0, [sp, #20]
 8002a20:	2000      	movs	r0, #0
 8002a22:	9006      	str	r0, [sp, #24]
 8002a24:	f644 0140 	movw	r1, #18496	; 0x4840
 8002a28:	f6c0 0100 	movt	r1, #2048	; 0x800
 8002a2c:	a803      	add	r0, sp, #12
 8002a2e:	f000 f8e6 	bl	8002bfe <_ZN4core9panicking9panic_fmt17h1f6c43f1b09e8ccbE>
 8002a32:	b00e      	add	sp, #56	; 0x38
 8002a34:	bd80      	pop	{r7, pc}

08002a36 <_ZN4core5slice3raw14from_raw_parts17hb3784d421b7b4debE>:
 8002a36:	b580      	push	{r7, lr}
 8002a38:	466f      	mov	r7, sp
 8002a3a:	b084      	sub	sp, #16
 8002a3c:	9100      	str	r1, [sp, #0]
 8002a3e:	9001      	str	r0, [sp, #4]
 8002a40:	9002      	str	r0, [sp, #8]
 8002a42:	9103      	str	r1, [sp, #12]
 8002a44:	e7ff      	b.n	8002a46 <_ZN4core5slice3raw14from_raw_parts17hb3784d421b7b4debE+0x10>
 8002a46:	9b00      	ldr	r3, [sp, #0]
 8002a48:	9801      	ldr	r0, [sp, #4]
 8002a4a:	2201      	movs	r2, #1
 8002a4c:	4611      	mov	r1, r2
 8002a4e:	f000 f805 	bl	8002a5c <_ZN4core5slice3raw14from_raw_parts18precondition_check17h710dc7f5bcbafedcE>
 8002a52:	e7ff      	b.n	8002a54 <_ZN4core5slice3raw14from_raw_parts17hb3784d421b7b4debE+0x1e>
 8002a54:	9900      	ldr	r1, [sp, #0]
 8002a56:	9801      	ldr	r0, [sp, #4]
 8002a58:	b004      	add	sp, #16
 8002a5a:	bd80      	pop	{r7, pc}

08002a5c <_ZN4core5slice3raw14from_raw_parts18precondition_check17h710dc7f5bcbafedcE>:
 8002a5c:	b580      	push	{r7, lr}
 8002a5e:	466f      	mov	r7, sp
 8002a60:	b094      	sub	sp, #80	; 0x50
 8002a62:	9301      	str	r3, [sp, #4]
 8002a64:	9202      	str	r2, [sp, #8]
 8002a66:	9103      	str	r1, [sp, #12]
 8002a68:	f244 7c78 	movw	ip, #18296	; 0x4778
 8002a6c:	f6c0 0c00 	movt	ip, #2048	; 0x800
 8002a70:	f8cd c014 	str.w	ip, [sp, #20]
 8002a74:	900d      	str	r0, [sp, #52]	; 0x34
 8002a76:	910e      	str	r1, [sp, #56]	; 0x38
 8002a78:	920f      	str	r2, [sp, #60]	; 0x3c
 8002a7a:	9310      	str	r3, [sp, #64]	; 0x40
 8002a7c:	9011      	str	r0, [sp, #68]	; 0x44
 8002a7e:	9012      	str	r0, [sp, #72]	; 0x48
 8002a80:	4601      	mov	r1, r0
 8002a82:	9104      	str	r1, [sp, #16]
 8002a84:	b908      	cbnz	r0, 8002a8a <_ZN4core5slice3raw14from_raw_parts18precondition_check17h710dc7f5bcbafedcE+0x2e>
 8002a86:	e7ff      	b.n	8002a88 <_ZN4core5slice3raw14from_raw_parts18precondition_check17h710dc7f5bcbafedcE+0x2c>
 8002a88:	e019      	b.n	8002abe <_ZN4core5slice3raw14from_raw_parts18precondition_check17h710dc7f5bcbafedcE+0x62>
 8002a8a:	9802      	ldr	r0, [sp, #8]
 8002a8c:	f04f 3155 	mov.w	r1, #1431655765	; 0x55555555
 8002a90:	ea01 0150 	and.w	r1, r1, r0, lsr #1
 8002a94:	1a40      	subs	r0, r0, r1
 8002a96:	f04f 3133 	mov.w	r1, #858993459	; 0x33333333
 8002a9a:	ea01 0190 	and.w	r1, r1, r0, lsr #2
 8002a9e:	f020 30cc 	bic.w	r0, r0, #3435973836	; 0xcccccccc
 8002aa2:	4408      	add	r0, r1
 8002aa4:	eb00 1010 	add.w	r0, r0, r0, lsr #4
 8002aa8:	f020 30f0 	bic.w	r0, r0, #4042322160	; 0xf0f0f0f0
 8002aac:	f04f 3101 	mov.w	r1, #16843009	; 0x1010101
 8002ab0:	4348      	muls	r0, r1
 8002ab2:	0e00      	lsrs	r0, r0, #24
 8002ab4:	9013      	str	r0, [sp, #76]	; 0x4c
 8002ab6:	9813      	ldr	r0, [sp, #76]	; 0x4c
 8002ab8:	2801      	cmp	r0, #1
 8002aba:	d001      	beq.n	8002ac0 <_ZN4core5slice3raw14from_raw_parts18precondition_check17h710dc7f5bcbafedcE+0x64>
 8002abc:	e006      	b.n	8002acc <_ZN4core5slice3raw14from_raw_parts18precondition_check17h710dc7f5bcbafedcE+0x70>
 8002abe:	e026      	b.n	8002b0e <_ZN4core5slice3raw14from_raw_parts18precondition_check17h710dc7f5bcbafedcE+0xb2>
 8002ac0:	9804      	ldr	r0, [sp, #16]
 8002ac2:	9902      	ldr	r1, [sp, #8]
 8002ac4:	3901      	subs	r1, #1
 8002ac6:	4208      	tst	r0, r1
 8002ac8:	d01a      	beq.n	8002b00 <_ZN4core5slice3raw14from_raw_parts18precondition_check17h710dc7f5bcbafedcE+0xa4>
 8002aca:	e7f8      	b.n	8002abe <_ZN4core5slice3raw14from_raw_parts18precondition_check17h710dc7f5bcbafedcE+0x62>
 8002acc:	f244 7078 	movw	r0, #18296	; 0x4778
 8002ad0:	f6c0 0000 	movt	r0, #2048	; 0x800
 8002ad4:	9006      	str	r0, [sp, #24]
 8002ad6:	2001      	movs	r0, #1
 8002ad8:	9007      	str	r0, [sp, #28]
 8002ada:	f244 50d4 	movw	r0, #17876	; 0x45d4
 8002ade:	f6c0 0000 	movt	r0, #2048	; 0x800
 8002ae2:	6801      	ldr	r1, [r0, #0]
 8002ae4:	6840      	ldr	r0, [r0, #4]
 8002ae6:	910a      	str	r1, [sp, #40]	; 0x28
 8002ae8:	900b      	str	r0, [sp, #44]	; 0x2c
 8002aea:	2004      	movs	r0, #4
 8002aec:	9008      	str	r0, [sp, #32]
 8002aee:	2000      	movs	r0, #0
 8002af0:	9009      	str	r0, [sp, #36]	; 0x24
 8002af2:	f644 0140 	movw	r1, #18496	; 0x4840
 8002af6:	f6c0 0100 	movt	r1, #2048	; 0x800
 8002afa:	a806      	add	r0, sp, #24
 8002afc:	f000 f87f 	bl	8002bfe <_ZN4core9panicking9panic_fmt17h1f6c43f1b09e8ccbE>
 8002b00:	9803      	ldr	r0, [sp, #12]
 8002b02:	fab0 f180 	clz	r1, r0
 8002b06:	0949      	lsrs	r1, r1, #5
 8002b08:	9100      	str	r1, [sp, #0]
 8002b0a:	b138      	cbz	r0, 8002b1c <_ZN4core5slice3raw14from_raw_parts18precondition_check17h710dc7f5bcbafedcE+0xc0>
 8002b0c:	e00a      	b.n	8002b24 <_ZN4core5slice3raw14from_raw_parts18precondition_check17h710dc7f5bcbafedcE+0xc8>
 8002b0e:	f644 101c 	movw	r0, #18716	; 0x491c
 8002b12:	f6c0 0000 	movt	r0, #2048	; 0x800
 8002b16:	21a2      	movs	r1, #162	; 0xa2
 8002b18:	f000 f8a6 	bl	8002c68 <_ZN4core9panicking14panic_nounwind17h6250df33aaa81432E>
 8002b1c:	f04f 30ff 	mov.w	r0, #4294967295	; 0xffffffff
 8002b20:	900c      	str	r0, [sp, #48]	; 0x30
 8002b22:	e003      	b.n	8002b2c <_ZN4core5slice3raw14from_raw_parts18precondition_check17h710dc7f5bcbafedcE+0xd0>
 8002b24:	9800      	ldr	r0, [sp, #0]
 8002b26:	07c0      	lsls	r0, r0, #31
 8002b28:	b960      	cbnz	r0, 8002b44 <_ZN4core5slice3raw14from_raw_parts18precondition_check17h710dc7f5bcbafedcE+0xe8>
 8002b2a:	e004      	b.n	8002b36 <_ZN4core5slice3raw14from_raw_parts18precondition_check17h710dc7f5bcbafedcE+0xda>
 8002b2c:	9801      	ldr	r0, [sp, #4]
 8002b2e:	990c      	ldr	r1, [sp, #48]	; 0x30
 8002b30:	4288      	cmp	r0, r1
 8002b32:	d90e      	bls.n	8002b52 <_ZN4core5slice3raw14from_raw_parts18precondition_check17h710dc7f5bcbafedcE+0xf6>
 8002b34:	e00c      	b.n	8002b50 <_ZN4core5slice3raw14from_raw_parts18precondition_check17h710dc7f5bcbafedcE+0xf4>
 8002b36:	9903      	ldr	r1, [sp, #12]
 8002b38:	f06f 4000 	mvn.w	r0, #2147483648	; 0x80000000
 8002b3c:	fbb0 f0f1 	udiv	r0, r0, r1
 8002b40:	900c      	str	r0, [sp, #48]	; 0x30
 8002b42:	e7f3      	b.n	8002b2c <_ZN4core5slice3raw14from_raw_parts18precondition_check17h710dc7f5bcbafedcE+0xd0>
 8002b44:	f644 100c 	movw	r0, #18700	; 0x490c
 8002b48:	f6c0 0000 	movt	r0, #2048	; 0x800
 8002b4c:	f000 fe1e 	bl	800378c <_ZN4core9panicking11panic_const23panic_const_div_by_zero17h2a31fcd9fa76bd10E>
 8002b50:	e7dd      	b.n	8002b0e <_ZN4core5slice3raw14from_raw_parts18precondition_check17h710dc7f5bcbafedcE+0xb2>
 8002b52:	b014      	add	sp, #80	; 0x50
 8002b54:	bd80      	pop	{r7, pc}

08002b56 <__cpsid>:
 8002b56:	b672      	cpsid	i
 8002b58:	4770      	bx	lr

08002b5a <__cpsie>:
 8002b5a:	b662      	cpsie	i
 8002b5c:	4770      	bx	lr

08002b5e <__primask_r>:
 8002b5e:	f3ef 8010 	mrs	r0, PRIMASK
 8002b62:	4770      	bx	lr

08002b64 <_ZN10bare_metal15CriticalSection3new17h1f98d97984e361d0E>:
 8002b64:	4770      	bx	lr
 8002b66:	d4d4      	bmi.n	8002b12 <_ZN4core5slice3raw14from_raw_parts18precondition_check17h710dc7f5bcbafedcE+0xb6>

08002b68 <_ZN4core4sync6atomic14compiler_fence17h6044928010a7282cE>:
 8002b68:	b580      	push	{r7, lr}
 8002b6a:	466f      	mov	r7, sp
 8002b6c:	b08a      	sub	sp, #40	; 0x28
 8002b6e:	f644 11f0 	movw	r1, #18928	; 0x49f0
 8002b72:	f6c0 0100 	movt	r1, #2048	; 0x800
 8002b76:	9102      	str	r1, [sp, #8]
 8002b78:	f807 0c19 	strb.w	r0, [r7, #-25]
 8002b7c:	f817 0c19 	ldrb.w	r0, [r7, #-25]
 8002b80:	9001      	str	r0, [sp, #4]
 8002b82:	9901      	ldr	r1, [sp, #4]
 8002b84:	e8df f001 	tbb	[pc, r1]
 8002b88:	201f1e04 	.word	0x201f1e04
 8002b8c:	0021      	.short	0x0021
 8002b8e:	defe      	udf	#254	; 0xfe
 8002b90:	f644 10f0 	movw	r0, #18928	; 0x49f0
 8002b94:	f6c0 0000 	movt	r0, #2048	; 0x800
 8002b98:	9004      	str	r0, [sp, #16]
 8002b9a:	2001      	movs	r0, #1
 8002b9c:	9005      	str	r0, [sp, #20]
 8002b9e:	f244 50d4 	movw	r0, #17876	; 0x45d4
 8002ba2:	f6c0 0000 	movt	r0, #2048	; 0x800
 8002ba6:	6801      	ldr	r1, [r0, #0]
 8002ba8:	6840      	ldr	r0, [r0, #4]
 8002baa:	9108      	str	r1, [sp, #32]
 8002bac:	9009      	str	r0, [sp, #36]	; 0x24
 8002bae:	2004      	movs	r0, #4
 8002bb0:	9006      	str	r0, [sp, #24]
 8002bb2:	2000      	movs	r0, #0
 8002bb4:	9007      	str	r0, [sp, #28]
 8002bb6:	f644 2148 	movw	r1, #19016	; 0x4a48
 8002bba:	f6c0 0100 	movt	r1, #2048	; 0x800
 8002bbe:	a804      	add	r0, sp, #16
 8002bc0:	f000 f81d 	bl	8002bfe <_ZN4core9panicking9panic_fmt17h1f6c43f1b09e8ccbE>
 8002bc4:	e002      	b.n	8002bcc <_ZN4core4sync6atomic14compiler_fence17h6044928010a7282cE+0x64>
 8002bc6:	e001      	b.n	8002bcc <_ZN4core4sync6atomic14compiler_fence17h6044928010a7282cE+0x64>
 8002bc8:	e000      	b.n	8002bcc <_ZN4core4sync6atomic14compiler_fence17h6044928010a7282cE+0x64>
 8002bca:	e7ff      	b.n	8002bcc <_ZN4core4sync6atomic14compiler_fence17h6044928010a7282cE+0x64>
 8002bcc:	b00a      	add	sp, #40	; 0x28
 8002bce:	bd80      	pop	{r7, pc}

08002bd0 <rust_begin_unwind>:
 8002bd0:	b580      	push	{r7, lr}
 8002bd2:	466f      	mov	r7, sp
 8002bd4:	b082      	sub	sp, #8
 8002bd6:	9001      	str	r0, [sp, #4]
 8002bd8:	e7ff      	b.n	8002bda <rust_begin_unwind+0xa>
 8002bda:	2004      	movs	r0, #4
 8002bdc:	f807 0c05 	strb.w	r0, [r7, #-5]
 8002be0:	f817 0c05 	ldrb.w	r0, [r7, #-5]
 8002be4:	f7ff ffc0 	bl	8002b68 <_ZN4core4sync6atomic14compiler_fence17h6044928010a7282cE>
 8002be8:	e7f7      	b.n	8002bda <rust_begin_unwind+0xa>

08002bea <_ZN4core6option13unwrap_failed17h8d194fb1406a9394E>:
 8002bea:	b580      	push	{r7, lr}
 8002bec:	466f      	mov	r7, sp
 8002bee:	4602      	mov	r2, r0
 8002bf0:	f644 3000 	movw	r0, #19200	; 0x4b00
 8002bf4:	f6c0 0000 	movt	r0, #2048	; 0x800
 8002bf8:	212b      	movs	r1, #43	; 0x2b
 8002bfa:	f000 f822 	bl	8002c42 <_ZN4core9panicking5panic17h080ae1d68604d494E>

08002bfe <_ZN4core9panicking9panic_fmt17h1f6c43f1b09e8ccbE>:
 8002bfe:	b580      	push	{r7, lr}
 8002c00:	466f      	mov	r7, sp
 8002c02:	b088      	sub	sp, #32
 8002c04:	e890 4174 	ldmia.w	r0, {r2, r4, r5, r6, r8, lr}
 8002c08:	46ec      	mov	ip, sp
 8002c0a:	4663      	mov	r3, ip
 8002c0c:	2001      	movs	r0, #1
 8002c0e:	e883 4174 	stmia.w	r3, {r2, r4, r5, r6, r8, lr}
 8002c12:	f8ad 001c 	strh.w	r0, [sp, #28]
 8002c16:	4660      	mov	r0, ip
 8002c18:	9106      	str	r1, [sp, #24]
 8002c1a:	f7ff ffd9 	bl	8002bd0 <rust_begin_unwind>

08002c1e <_ZN4core9panicking18panic_nounwind_fmt17ha519607defa5fc5eE>:
 8002c1e:	b580      	push	{r7, lr}
 8002c20:	466f      	mov	r7, sp
 8002c22:	b088      	sub	sp, #32
 8002c24:	e890 4370 	ldmia.w	r0, {r4, r5, r6, r8, r9, lr}
 8002c28:	46ec      	mov	ip, sp
 8002c2a:	4663      	mov	r3, ip
 8002c2c:	2000      	movs	r0, #0
 8002c2e:	e883 4370 	stmia.w	r3, {r4, r5, r6, r8, r9, lr}
 8002c32:	f88d 001c 	strb.w	r0, [sp, #28]
 8002c36:	4660      	mov	r0, ip
 8002c38:	f88d 101d 	strb.w	r1, [sp, #29]
 8002c3c:	9206      	str	r2, [sp, #24]
 8002c3e:	f7ff ffc7 	bl	8002bd0 <rust_begin_unwind>

08002c42 <_ZN4core9panicking5panic17h080ae1d68604d494E>:
 8002c42:	b580      	push	{r7, lr}
 8002c44:	466f      	mov	r7, sp
 8002c46:	b088      	sub	sp, #32
 8002c48:	4694      	mov	ip, r2
 8002c4a:	2201      	movs	r2, #1
 8002c4c:	9201      	str	r2, [sp, #4]
 8002c4e:	aa06      	add	r2, sp, #24
 8002c50:	2300      	movs	r3, #0
 8002c52:	e9cd 0106 	strd	r0, r1, [sp, #24]
 8002c56:	9200      	str	r2, [sp, #0]
 8002c58:	2204      	movs	r2, #4
 8002c5a:	4668      	mov	r0, sp
 8002c5c:	4661      	mov	r1, ip
 8002c5e:	9304      	str	r3, [sp, #16]
 8002c60:	9303      	str	r3, [sp, #12]
 8002c62:	9202      	str	r2, [sp, #8]
 8002c64:	f7ff ffcb 	bl	8002bfe <_ZN4core9panicking9panic_fmt17h1f6c43f1b09e8ccbE>

08002c68 <_ZN4core9panicking14panic_nounwind17h6250df33aaa81432E>:
 8002c68:	b580      	push	{r7, lr}
 8002c6a:	466f      	mov	r7, sp
 8002c6c:	b088      	sub	sp, #32
 8002c6e:	2200      	movs	r2, #0
 8002c70:	e9cd 0106 	strd	r0, r1, [sp, #24]
 8002c74:	9204      	str	r2, [sp, #16]
 8002c76:	2301      	movs	r3, #1
 8002c78:	9203      	str	r2, [sp, #12]
 8002c7a:	2204      	movs	r2, #4
 8002c7c:	9202      	str	r2, [sp, #8]
 8002c7e:	f644 3240 	movw	r2, #19264	; 0x4b40
 8002c82:	f6c0 0200 	movt	r2, #2048	; 0x800
 8002c86:	4668      	mov	r0, sp
 8002c88:	2100      	movs	r1, #0
 8002c8a:	9301      	str	r3, [sp, #4]
 8002c8c:	ab06      	add	r3, sp, #24
 8002c8e:	9300      	str	r3, [sp, #0]
 8002c90:	f7ff ffc5 	bl	8002c1e <_ZN4core9panicking18panic_nounwind_fmt17ha519607defa5fc5eE>

08002c94 <_ZN4core9panicking18panic_bounds_check17h51a0e808ab013ae4E>:
 8002c94:	b580      	push	{r7, lr}
 8002c96:	466f      	mov	r7, sp
 8002c98:	b08c      	sub	sp, #48	; 0x30
 8002c9a:	e9cd 0100 	strd	r0, r1, [sp]
 8002c9e:	2000      	movs	r0, #0
 8002ca0:	9006      	str	r0, [sp, #24]
 8002ca2:	2002      	movs	r0, #2
 8002ca4:	4908      	ldr	r1, [pc, #32]	; (8002cc8 <_ZN4core9panicking18panic_bounds_check17h51a0e808ab013ae4E+0x34>)
 8002ca6:	9102      	str	r1, [sp, #8]
 8002ca8:	4669      	mov	r1, sp
 8002caa:	9003      	str	r0, [sp, #12]
 8002cac:	9005      	str	r0, [sp, #20]
 8002cae:	a808      	add	r0, sp, #32
 8002cb0:	9004      	str	r0, [sp, #16]
 8002cb2:	4806      	ldr	r0, [pc, #24]	; (8002ccc <_ZN4core9panicking18panic_bounds_check17h51a0e808ab013ae4E+0x38>)
 8002cb4:	e9cd 0109 	strd	r0, r1, [sp, #36]	; 0x24
 8002cb8:	4611      	mov	r1, r2
 8002cba:	900b      	str	r0, [sp, #44]	; 0x2c
 8002cbc:	a801      	add	r0, sp, #4
 8002cbe:	9008      	str	r0, [sp, #32]
 8002cc0:	a802      	add	r0, sp, #8
 8002cc2:	f7ff ff9c 	bl	8002bfe <_ZN4core9panicking9panic_fmt17h1f6c43f1b09e8ccbE>
 8002cc6:	bf00      	nop
 8002cc8:	08004b84 	.word	0x08004b84
 8002ccc:	080037d9 	.word	0x080037d9

08002cd0 <_ZN4core6result13unwrap_failed17h30039348cb6cd5deE>:
 8002cd0:	b580      	push	{r7, lr}
 8002cd2:	466f      	mov	r7, sp
 8002cd4:	b08e      	sub	sp, #56	; 0x38
 8002cd6:	e88d 000f 	stmia.w	sp, {r0, r1, r2, r3}
 8002cda:	2000      	movs	r0, #0
 8002cdc:	f644 3198 	movw	r1, #19352	; 0x4b98
 8002ce0:	9008      	str	r0, [sp, #32]
 8002ce2:	2002      	movs	r0, #2
 8002ce4:	9005      	str	r0, [sp, #20]
 8002ce6:	f6c0 0100 	movt	r1, #2048	; 0x800
 8002cea:	9007      	str	r0, [sp, #28]
 8002cec:	a80a      	add	r0, sp, #40	; 0x28
 8002cee:	9006      	str	r0, [sp, #24]
 8002cf0:	f643 00c7 	movw	r0, #14535	; 0x38c7
 8002cf4:	f6c0 0000 	movt	r0, #2048	; 0x800
 8002cf8:	f8d7 c008 	ldr.w	ip, [r7, #8]
 8002cfc:	900d      	str	r0, [sp, #52]	; 0x34
 8002cfe:	a802      	add	r0, sp, #8
 8002d00:	900c      	str	r0, [sp, #48]	; 0x30
 8002d02:	f643 00cf 	movw	r0, #14543	; 0x38cf
 8002d06:	f6c0 0000 	movt	r0, #2048	; 0x800
 8002d0a:	9104      	str	r1, [sp, #16]
 8002d0c:	900b      	str	r0, [sp, #44]	; 0x2c
 8002d0e:	4668      	mov	r0, sp
 8002d10:	900a      	str	r0, [sp, #40]	; 0x28
 8002d12:	a804      	add	r0, sp, #16
 8002d14:	4661      	mov	r1, ip
 8002d16:	f7ff ff72 	bl	8002bfe <_ZN4core9panicking9panic_fmt17h1f6c43f1b09e8ccbE>
 8002d1a:	d4d4      	bmi.n	8002cc6 <_ZN4core9panicking18panic_bounds_check17h51a0e808ab013ae4E+0x32>

08002d1c <_ZN4core3fmt9Formatter12pad_integral17h4f55246c3f68aa69E>:
 8002d1c:	b5f0      	push	{r4, r5, r6, r7, lr}
 8002d1e:	af03      	add	r7, sp, #12
 8002d20:	e92d 0f00 	stmdb	sp!, {r8, r9, sl, fp}
 8002d24:	b087      	sub	sp, #28
 8002d26:	f8d7 900c 	ldr.w	r9, [r7, #12]
 8002d2a:	461c      	mov	r4, r3
 8002d2c:	4615      	mov	r5, r2
 8002d2e:	2900      	cmp	r1, #0
 8002d30:	d04e      	beq.n	8002dd0 <_ZN4core3fmt9Formatter12pad_integral17h4f55246c3f68aa69E+0xb4>
 8002d32:	f8d0 b01c 	ldr.w	fp, [r0, #28]
 8002d36:	222b      	movs	r2, #43	; 0x2b
 8002d38:	f01b 0101 	ands.w	r1, fp, #1
 8002d3c:	bf08      	it	eq
 8002d3e:	f44f 1288 	moveq.w	r2, #1114112	; 0x110000
 8002d42:	eb01 0a09 	add.w	sl, r1, r9
 8002d46:	f8d7 8008 	ldr.w	r8, [r7, #8]
 8002d4a:	ea5f 714b 	movs.w	r1, fp, lsl #29
 8002d4e:	d549      	bpl.n	8002de4 <_ZN4core3fmt9Formatter12pad_integral17h4f55246c3f68aa69E+0xc8>
 8002d50:	2c10      	cmp	r4, #16
 8002d52:	9206      	str	r2, [sp, #24]
 8002d54:	d258      	bcs.n	8002e08 <_ZN4core3fmt9Formatter12pad_integral17h4f55246c3f68aa69E+0xec>
 8002d56:	2c00      	cmp	r4, #0
 8002d58:	d062      	beq.n	8002e20 <_ZN4core3fmt9Formatter12pad_integral17h4f55246c3f68aa69E+0x104>
 8002d5a:	f004 0c03 	and.w	ip, r4, #3
 8002d5e:	08a2      	lsrs	r2, r4, #2
 8002d60:	f04f 0100 	mov.w	r1, #0
 8002d64:	d05e      	beq.n	8002e24 <_ZN4core3fmt9Formatter12pad_integral17h4f55246c3f68aa69E+0x108>
 8002d66:	f002 0203 	and.w	r2, r2, #3
 8002d6a:	f8cd 8010 	str.w	r8, [sp, #16]
 8002d6e:	f105 0801 	add.w	r8, r5, #1
 8002d72:	e9cd 4902 	strd	r4, r9, [sp, #8]
 8002d76:	eba1 0e82 	sub.w	lr, r1, r2, lsl #2
 8002d7a:	f06f 0203 	mvn.w	r2, #3
 8002d7e:	9505      	str	r5, [sp, #20]
 8002d80:	eb08 0502 	add.w	r5, r8, r2
 8002d84:	3204      	adds	r2, #4
 8002d86:	f995 3003 	ldrsb.w	r3, [r5, #3]
 8002d8a:	f995 4006 	ldrsb.w	r4, [r5, #6]
 8002d8e:	f995 6005 	ldrsb.w	r6, [r5, #5]
 8002d92:	f113 0f41 	cmn.w	r3, #65	; 0x41
 8002d96:	f995 5004 	ldrsb.w	r5, [r5, #4]
 8002d9a:	bfc8      	it	gt
 8002d9c:	3101      	addgt	r1, #1
 8002d9e:	eb0e 0302 	add.w	r3, lr, r2
 8002da2:	f115 0f41 	cmn.w	r5, #65	; 0x41
 8002da6:	bfc8      	it	gt
 8002da8:	3101      	addgt	r1, #1
 8002daa:	f116 0f41 	cmn.w	r6, #65	; 0x41
 8002dae:	bfc8      	it	gt
 8002db0:	3101      	addgt	r1, #1
 8002db2:	f114 0f41 	cmn.w	r4, #65	; 0x41
 8002db6:	bfc8      	it	gt
 8002db8:	3101      	addgt	r1, #1
 8002dba:	3304      	adds	r3, #4
 8002dbc:	d1e0      	bne.n	8002d80 <_ZN4core3fmt9Formatter12pad_integral17h4f55246c3f68aa69E+0x64>
 8002dbe:	e9dd 8504 	ldrd	r8, r5, [sp, #16]
 8002dc2:	3204      	adds	r2, #4
 8002dc4:	e9dd 4902 	ldrd	r4, r9, [sp, #8]
 8002dc8:	f1bc 0f00 	cmp.w	ip, #0
 8002dcc:	d12e      	bne.n	8002e2c <_ZN4core3fmt9Formatter12pad_integral17h4f55246c3f68aa69E+0x110>
 8002dce:	e045      	b.n	8002e5c <_ZN4core3fmt9Formatter12pad_integral17h4f55246c3f68aa69E+0x140>
 8002dd0:	f8d0 b01c 	ldr.w	fp, [r0, #28]
 8002dd4:	f109 0a01 	add.w	sl, r9, #1
 8002dd8:	222d      	movs	r2, #45	; 0x2d
 8002dda:	f8d7 8008 	ldr.w	r8, [r7, #8]
 8002dde:	ea5f 714b 	movs.w	r1, fp, lsl #29
 8002de2:	d4b5      	bmi.n	8002d50 <_ZN4core3fmt9Formatter12pad_integral17h4f55246c3f68aa69E+0x34>
 8002de4:	2500      	movs	r5, #0
 8002de6:	6801      	ldr	r1, [r0, #0]
 8002de8:	bbe9      	cbnz	r1, 8002e66 <_ZN4core3fmt9Formatter12pad_integral17h4f55246c3f68aa69E+0x14a>
 8002dea:	4621      	mov	r1, r4
 8002dec:	e9d0 4605 	ldrd	r4, r6, [r0, #20]
 8002df0:	9100      	str	r1, [sp, #0]
 8002df2:	4631      	mov	r1, r6
 8002df4:	462b      	mov	r3, r5
 8002df6:	4620      	mov	r0, r4
 8002df8:	f000 f8f1 	bl	8002fde <_ZN4core3fmt9Formatter12pad_integral12write_prefix17ha7f35cf2644d8cf7E>
 8002dfc:	b160      	cbz	r0, 8002e18 <_ZN4core3fmt9Formatter12pad_integral17h4f55246c3f68aa69E+0xfc>
 8002dfe:	2001      	movs	r0, #1
 8002e00:	b007      	add	sp, #28
 8002e02:	e8bd 0f00 	ldmia.w	sp!, {r8, r9, sl, fp}
 8002e06:	bdf0      	pop	{r4, r5, r6, r7, pc}
 8002e08:	4606      	mov	r6, r0
 8002e0a:	4628      	mov	r0, r5
 8002e0c:	4621      	mov	r1, r4
 8002e0e:	f000 fa0c 	bl	800322a <_ZN4core3str5count14do_count_chars17hef6d2fa4b441d301E>
 8002e12:	4601      	mov	r1, r0
 8002e14:	4630      	mov	r0, r6
 8002e16:	e021      	b.n	8002e5c <_ZN4core3fmt9Formatter12pad_integral17h4f55246c3f68aa69E+0x140>
 8002e18:	68f3      	ldr	r3, [r6, #12]
 8002e1a:	4620      	mov	r0, r4
 8002e1c:	4641      	mov	r1, r8
 8002e1e:	e078      	b.n	8002f12 <_ZN4core3fmt9Formatter12pad_integral17h4f55246c3f68aa69E+0x1f6>
 8002e20:	2100      	movs	r1, #0
 8002e22:	e01b      	b.n	8002e5c <_ZN4core3fmt9Formatter12pad_integral17h4f55246c3f68aa69E+0x140>
 8002e24:	2200      	movs	r2, #0
 8002e26:	f1bc 0f00 	cmp.w	ip, #0
 8002e2a:	d017      	beq.n	8002e5c <_ZN4core3fmt9Formatter12pad_integral17h4f55246c3f68aa69E+0x140>
 8002e2c:	56ab      	ldrsb	r3, [r5, r2]
 8002e2e:	f113 0f41 	cmn.w	r3, #65	; 0x41
 8002e32:	bfc8      	it	gt
 8002e34:	3101      	addgt	r1, #1
 8002e36:	f1bc 0f01 	cmp.w	ip, #1
 8002e3a:	d00f      	beq.n	8002e5c <_ZN4core3fmt9Formatter12pad_integral17h4f55246c3f68aa69E+0x140>
 8002e3c:	442a      	add	r2, r5
 8002e3e:	f992 3001 	ldrsb.w	r3, [r2, #1]
 8002e42:	f113 0f41 	cmn.w	r3, #65	; 0x41
 8002e46:	bfc8      	it	gt
 8002e48:	3101      	addgt	r1, #1
 8002e4a:	f1bc 0f02 	cmp.w	ip, #2
 8002e4e:	d005      	beq.n	8002e5c <_ZN4core3fmt9Formatter12pad_integral17h4f55246c3f68aa69E+0x140>
 8002e50:	f992 2002 	ldrsb.w	r2, [r2, #2]
 8002e54:	f112 0f41 	cmn.w	r2, #65	; 0x41
 8002e58:	bfc8      	it	gt
 8002e5a:	3101      	addgt	r1, #1
 8002e5c:	9a06      	ldr	r2, [sp, #24]
 8002e5e:	448a      	add	sl, r1
 8002e60:	6801      	ldr	r1, [r0, #0]
 8002e62:	2900      	cmp	r1, #0
 8002e64:	d0c1      	beq.n	8002dea <_ZN4core3fmt9Formatter12pad_integral17h4f55246c3f68aa69E+0xce>
 8002e66:	e9cd 8504 	strd	r8, r5, [sp, #16]
 8002e6a:	f8d0 8004 	ldr.w	r8, [r0, #4]
 8002e6e:	45d0      	cmp	r8, sl
 8002e70:	d912      	bls.n	8002e98 <_ZN4core3fmt9Formatter12pad_integral17h4f55246c3f68aa69E+0x17c>
 8002e72:	ea5f 710b 	movs.w	r1, fp, lsl #28
 8002e76:	d41e      	bmi.n	8002eb6 <_ZN4core3fmt9Formatter12pad_integral17h4f55246c3f68aa69E+0x19a>
 8002e78:	f890 1020 	ldrb.w	r1, [r0, #32]
 8002e7c:	eba8 030a 	sub.w	r3, r8, sl
 8002e80:	9206      	str	r2, [sp, #24]
 8002e82:	46ca      	mov	sl, r9
 8002e84:	46a3      	mov	fp, r4
 8002e86:	4699      	mov	r9, r3
 8002e88:	e8df f001 	tbb	[pc, r1]
 8002e8c:	0255025b 	.word	0x0255025b
 8002e90:	4649      	mov	r1, r9
 8002e92:	f04f 0900 	mov.w	r9, #0
 8002e96:	e054      	b.n	8002f42 <_ZN4core3fmt9Formatter12pad_integral17h4f55246c3f68aa69E+0x226>
 8002e98:	4621      	mov	r1, r4
 8002e9a:	e9d0 4605 	ldrd	r4, r6, [r0, #20]
 8002e9e:	9100      	str	r1, [sp, #0]
 8002ea0:	4631      	mov	r1, r6
 8002ea2:	9b05      	ldr	r3, [sp, #20]
 8002ea4:	4620      	mov	r0, r4
 8002ea6:	f000 f89a 	bl	8002fde <_ZN4core3fmt9Formatter12pad_integral12write_prefix17ha7f35cf2644d8cf7E>
 8002eaa:	b378      	cbz	r0, 8002f0c <_ZN4core3fmt9Formatter12pad_integral17h4f55246c3f68aa69E+0x1f0>
 8002eac:	2001      	movs	r0, #1
 8002eae:	b007      	add	sp, #28
 8002eb0:	e8bd 0f00 	ldmia.w	sp!, {r8, r9, sl, fp}
 8002eb4:	bdf0      	pop	{r4, r5, r6, r7, pc}
 8002eb6:	2130      	movs	r1, #48	; 0x30
 8002eb8:	f8d0 b010 	ldr.w	fp, [r0, #16]
 8002ebc:	4623      	mov	r3, r4
 8002ebe:	6101      	str	r1, [r0, #16]
 8002ec0:	2101      	movs	r1, #1
 8002ec2:	f890 5020 	ldrb.w	r5, [r0, #32]
 8002ec6:	e9d0 4605 	ldrd	r4, r6, [r0, #20]
 8002eca:	f880 1020 	strb.w	r1, [r0, #32]
 8002ece:	4631      	mov	r1, r6
 8002ed0:	9003      	str	r0, [sp, #12]
 8002ed2:	9300      	str	r3, [sp, #0]
 8002ed4:	4620      	mov	r0, r4
 8002ed6:	9b05      	ldr	r3, [sp, #20]
 8002ed8:	f000 f881 	bl	8002fde <_ZN4core3fmt9Formatter12pad_integral12write_prefix17ha7f35cf2644d8cf7E>
 8002edc:	4601      	mov	r1, r0
 8002ede:	2001      	movs	r0, #1
 8002ee0:	2900      	cmp	r1, #0
 8002ee2:	f47f af8d 	bne.w	8002e00 <_ZN4core3fmt9Formatter12pad_integral17h4f55246c3f68aa69E+0xe4>
 8002ee6:	9506      	str	r5, [sp, #24]
 8002ee8:	eba8 000a 	sub.w	r0, r8, sl
 8002eec:	f8dd 8010 	ldr.w	r8, [sp, #16]
 8002ef0:	1c45      	adds	r5, r0, #1
 8002ef2:	3d01      	subs	r5, #1
 8002ef4:	d014      	beq.n	8002f20 <_ZN4core3fmt9Formatter12pad_integral17h4f55246c3f68aa69E+0x204>
 8002ef6:	6932      	ldr	r2, [r6, #16]
 8002ef8:	4620      	mov	r0, r4
 8002efa:	2130      	movs	r1, #48	; 0x30
 8002efc:	4790      	blx	r2
 8002efe:	2800      	cmp	r0, #0
 8002f00:	d0f7      	beq.n	8002ef2 <_ZN4core3fmt9Formatter12pad_integral17h4f55246c3f68aa69E+0x1d6>
 8002f02:	2001      	movs	r0, #1
 8002f04:	b007      	add	sp, #28
 8002f06:	e8bd 0f00 	ldmia.w	sp!, {r8, r9, sl, fp}
 8002f0a:	bdf0      	pop	{r4, r5, r6, r7, pc}
 8002f0c:	68f3      	ldr	r3, [r6, #12]
 8002f0e:	4620      	mov	r0, r4
 8002f10:	9904      	ldr	r1, [sp, #16]
 8002f12:	464a      	mov	r2, r9
 8002f14:	b007      	add	sp, #28
 8002f16:	e8bd 0f00 	ldmia.w	sp!, {r8, r9, sl, fp}
 8002f1a:	e8bd 40f0 	ldmia.w	sp!, {r4, r5, r6, r7, lr}
 8002f1e:	4718      	bx	r3
 8002f20:	68f3      	ldr	r3, [r6, #12]
 8002f22:	4620      	mov	r0, r4
 8002f24:	4641      	mov	r1, r8
 8002f26:	464a      	mov	r2, r9
 8002f28:	4798      	blx	r3
 8002f2a:	b3b8      	cbz	r0, 8002f9c <_ZN4core3fmt9Formatter12pad_integral17h4f55246c3f68aa69E+0x280>
 8002f2c:	2001      	movs	r0, #1
 8002f2e:	b007      	add	sp, #28
 8002f30:	e8bd 0f00 	ldmia.w	sp!, {r8, r9, sl, fp}
 8002f34:	bdf0      	pop	{r4, r5, r6, r7, pc}
 8002f36:	f109 0201 	add.w	r2, r9, #1
 8002f3a:	ea4f 0159 	mov.w	r1, r9, lsr #1
 8002f3e:	ea4f 0952 	mov.w	r9, r2, lsr #1
 8002f42:	e9d0 6404 	ldrd	r6, r4, [r0, #16]
 8002f46:	1c4d      	adds	r5, r1, #1
 8002f48:	f8d0 8018 	ldr.w	r8, [r0, #24]
 8002f4c:	3d01      	subs	r5, #1
 8002f4e:	d00b      	beq.n	8002f68 <_ZN4core3fmt9Formatter12pad_integral17h4f55246c3f68aa69E+0x24c>
 8002f50:	f8d8 2010 	ldr.w	r2, [r8, #16]
 8002f54:	4620      	mov	r0, r4
 8002f56:	4631      	mov	r1, r6
 8002f58:	4790      	blx	r2
 8002f5a:	2800      	cmp	r0, #0
 8002f5c:	d0f6      	beq.n	8002f4c <_ZN4core3fmt9Formatter12pad_integral17h4f55246c3f68aa69E+0x230>
 8002f5e:	2001      	movs	r0, #1
 8002f60:	b007      	add	sp, #28
 8002f62:	e8bd 0f00 	ldmia.w	sp!, {r8, r9, sl, fp}
 8002f66:	bdf0      	pop	{r4, r5, r6, r7, pc}
 8002f68:	f8cd b000 	str.w	fp, [sp]
 8002f6c:	4620      	mov	r0, r4
 8002f6e:	e9dd 3205 	ldrd	r3, r2, [sp, #20]
 8002f72:	4641      	mov	r1, r8
 8002f74:	f000 f833 	bl	8002fde <_ZN4core3fmt9Formatter12pad_integral12write_prefix17ha7f35cf2644d8cf7E>
 8002f78:	b120      	cbz	r0, 8002f84 <_ZN4core3fmt9Formatter12pad_integral17h4f55246c3f68aa69E+0x268>
 8002f7a:	2001      	movs	r0, #1
 8002f7c:	b007      	add	sp, #28
 8002f7e:	e8bd 0f00 	ldmia.w	sp!, {r8, r9, sl, fp}
 8002f82:	bdf0      	pop	{r4, r5, r6, r7, pc}
 8002f84:	f8d8 300c 	ldr.w	r3, [r8, #12]
 8002f88:	4620      	mov	r0, r4
 8002f8a:	9904      	ldr	r1, [sp, #16]
 8002f8c:	4652      	mov	r2, sl
 8002f8e:	4798      	blx	r3
 8002f90:	b178      	cbz	r0, 8002fb2 <_ZN4core3fmt9Formatter12pad_integral17h4f55246c3f68aa69E+0x296>
 8002f92:	2001      	movs	r0, #1
 8002f94:	b007      	add	sp, #28
 8002f96:	e8bd 0f00 	ldmia.w	sp!, {r8, r9, sl, fp}
 8002f9a:	bdf0      	pop	{r4, r5, r6, r7, pc}
 8002f9c:	9803      	ldr	r0, [sp, #12]
 8002f9e:	9906      	ldr	r1, [sp, #24]
 8002fa0:	f880 1020 	strb.w	r1, [r0, #32]
 8002fa4:	f8c0 b010 	str.w	fp, [r0, #16]
 8002fa8:	2000      	movs	r0, #0
 8002faa:	b007      	add	sp, #28
 8002fac:	e8bd 0f00 	ldmia.w	sp!, {r8, r9, sl, fp}
 8002fb0:	bdf0      	pop	{r4, r5, r6, r7, pc}
 8002fb2:	2500      	movs	r5, #0
 8002fb4:	45a9      	cmp	r9, r5
 8002fb6:	d009      	beq.n	8002fcc <_ZN4core3fmt9Formatter12pad_integral17h4f55246c3f68aa69E+0x2b0>
 8002fb8:	f8d8 2010 	ldr.w	r2, [r8, #16]
 8002fbc:	4620      	mov	r0, r4
 8002fbe:	4631      	mov	r1, r6
 8002fc0:	4790      	blx	r2
 8002fc2:	3501      	adds	r5, #1
 8002fc4:	2800      	cmp	r0, #0
 8002fc6:	d0f5      	beq.n	8002fb4 <_ZN4core3fmt9Formatter12pad_integral17h4f55246c3f68aa69E+0x298>
 8002fc8:	1e69      	subs	r1, r5, #1
 8002fca:	e000      	b.n	8002fce <_ZN4core3fmt9Formatter12pad_integral17h4f55246c3f68aa69E+0x2b2>
 8002fcc:	4649      	mov	r1, r9
 8002fce:	2000      	movs	r0, #0
 8002fd0:	4549      	cmp	r1, r9
 8002fd2:	bf38      	it	cc
 8002fd4:	2001      	movcc	r0, #1
 8002fd6:	b007      	add	sp, #28
 8002fd8:	e8bd 0f00 	ldmia.w	sp!, {r8, r9, sl, fp}
 8002fdc:	bdf0      	pop	{r4, r5, r6, r7, pc}

08002fde <_ZN4core3fmt9Formatter12pad_integral12write_prefix17ha7f35cf2644d8cf7E>:
 8002fde:	b5f0      	push	{r4, r5, r6, r7, lr}
 8002fe0:	af03      	add	r7, sp, #12
 8002fe2:	f84d 8d04 	str.w	r8, [sp, #-4]!
 8002fe6:	f8d7 8008 	ldr.w	r8, [r7, #8]
 8002fea:	461c      	mov	r4, r3
 8002fec:	460e      	mov	r6, r1
 8002fee:	f5b2 1f88 	cmp.w	r2, #1114112	; 0x110000
 8002ff2:	d00a      	beq.n	800300a <_ZN4core3fmt9Formatter12pad_integral12write_prefix17ha7f35cf2644d8cf7E+0x2c>
 8002ff4:	6933      	ldr	r3, [r6, #16]
 8002ff6:	4611      	mov	r1, r2
 8002ff8:	4605      	mov	r5, r0
 8002ffa:	4798      	blx	r3
 8002ffc:	4601      	mov	r1, r0
 8002ffe:	4628      	mov	r0, r5
 8003000:	b119      	cbz	r1, 800300a <_ZN4core3fmt9Formatter12pad_integral12write_prefix17ha7f35cf2644d8cf7E+0x2c>
 8003002:	2001      	movs	r0, #1
 8003004:	f85d 8b04 	ldr.w	r8, [sp], #4
 8003008:	bdf0      	pop	{r4, r5, r6, r7, pc}
 800300a:	b13c      	cbz	r4, 800301c <_ZN4core3fmt9Formatter12pad_integral12write_prefix17ha7f35cf2644d8cf7E+0x3e>
 800300c:	68f3      	ldr	r3, [r6, #12]
 800300e:	4621      	mov	r1, r4
 8003010:	4642      	mov	r2, r8
 8003012:	f85d 8b04 	ldr.w	r8, [sp], #4
 8003016:	e8bd 40f0 	ldmia.w	sp!, {r4, r5, r6, r7, lr}
 800301a:	4718      	bx	r3
 800301c:	2000      	movs	r0, #0
 800301e:	f85d 8b04 	ldr.w	r8, [sp], #4
 8003022:	bdf0      	pop	{r4, r5, r6, r7, pc}

08003024 <_ZN4core3fmt9Formatter3pad17hbd7112f77e2050f2E>:
 8003024:	b5f0      	push	{r4, r5, r6, r7, lr}
 8003026:	af03      	add	r7, sp, #12
 8003028:	e92d 0f00 	stmdb	sp!, {r8, r9, sl, fp}
 800302c:	b081      	sub	sp, #4
 800302e:	460d      	mov	r5, r1
 8003030:	f8d0 c000 	ldr.w	ip, [r0]
 8003034:	6881      	ldr	r1, [r0, #8]
 8003036:	f1bc 0f00 	cmp.w	ip, #0
 800303a:	bf08      	it	eq
 800303c:	ea5f 73c1 	movseq.w	r3, r1, lsl #31
 8003040:	d037      	beq.n	80030b2 <_ZN4core3fmt9Formatter3pad17hbd7112f77e2050f2E+0x8e>
 8003042:	07c9      	lsls	r1, r1, #31
 8003044:	d030      	beq.n	80030a8 <_ZN4core3fmt9Formatter3pad17hbd7112f77e2050f2E+0x84>
 8003046:	68c6      	ldr	r6, [r0, #12]
 8003048:	eb05 0e02 	add.w	lr, r5, r2
 800304c:	f04f 0800 	mov.w	r8, #0
 8003050:	4629      	mov	r1, r5
 8003052:	b9e6      	cbnz	r6, 800308e <_ZN4core3fmt9Formatter3pad17hbd7112f77e2050f2E+0x6a>
 8003054:	4571      	cmp	r1, lr
 8003056:	d027      	beq.n	80030a8 <_ZN4core3fmt9Formatter3pad17hbd7112f77e2050f2E+0x84>
 8003058:	f991 1000 	ldrsb.w	r1, [r1]
 800305c:	f1b1 3fff 	cmp.w	r1, #4294967295	; 0xffffffff
 8003060:	bfdc      	itt	le
 8003062:	b2c9      	uxtble	r1, r1
 8003064:	29e0      	cmple	r1, #224	; 0xe0
 8003066:	f1b8 0f00 	cmp.w	r8, #0
 800306a:	d026      	beq.n	80030ba <_ZN4core3fmt9Formatter3pad17hbd7112f77e2050f2E+0x96>
 800306c:	4590      	cmp	r8, r2
 800306e:	d223      	bcs.n	80030b8 <_ZN4core3fmt9Formatter3pad17hbd7112f77e2050f2E+0x94>
 8003070:	f915 1008 	ldrsb.w	r1, [r5, r8]
 8003074:	f111 0f41 	cmn.w	r1, #65	; 0x41
 8003078:	dc1f      	bgt.n	80030ba <_ZN4core3fmt9Formatter3pad17hbd7112f77e2050f2E+0x96>
 800307a:	2100      	movs	r1, #0
 800307c:	e01e      	b.n	80030bc <_ZN4core3fmt9Formatter3pad17hbd7112f77e2050f2E+0x98>
 800307e:	29f0      	cmp	r1, #240	; 0xf0
 8003080:	bf2c      	ite	cs
 8003082:	1d21      	addcs	r1, r4, #4
 8003084:	1ce1      	addcc	r1, r4, #3
 8003086:	1b0b      	subs	r3, r1, r4
 8003088:	3e01      	subs	r6, #1
 800308a:	4498      	add	r8, r3
 800308c:	d0e2      	beq.n	8003054 <_ZN4core3fmt9Formatter3pad17hbd7112f77e2050f2E+0x30>
 800308e:	4571      	cmp	r1, lr
 8003090:	d00a      	beq.n	80030a8 <_ZN4core3fmt9Formatter3pad17hbd7112f77e2050f2E+0x84>
 8003092:	460c      	mov	r4, r1
 8003094:	f911 3b01 	ldrsb.w	r3, [r1], #1
 8003098:	f1b3 3fff 	cmp.w	r3, #4294967295	; 0xffffffff
 800309c:	dcf3      	bgt.n	8003086 <_ZN4core3fmt9Formatter3pad17hbd7112f77e2050f2E+0x62>
 800309e:	b2d9      	uxtb	r1, r3
 80030a0:	29e0      	cmp	r1, #224	; 0xe0
 80030a2:	d2ec      	bcs.n	800307e <_ZN4core3fmt9Formatter3pad17hbd7112f77e2050f2E+0x5a>
 80030a4:	1ca1      	adds	r1, r4, #2
 80030a6:	e7ee      	b.n	8003086 <_ZN4core3fmt9Formatter3pad17hbd7112f77e2050f2E+0x62>
 80030a8:	4690      	mov	r8, r2
 80030aa:	f1bc 0f00 	cmp.w	ip, #0
 80030ae:	d10c      	bne.n	80030ca <_ZN4core3fmt9Formatter3pad17hbd7112f77e2050f2E+0xa6>
 80030b0:	e07d      	b.n	80031ae <_ZN4core3fmt9Formatter3pad17hbd7112f77e2050f2E+0x18a>
 80030b2:	e9d0 0105 	ldrd	r0, r1, [r0, #20]
 80030b6:	e07d      	b.n	80031b4 <_ZN4core3fmt9Formatter3pad17hbd7112f77e2050f2E+0x190>
 80030b8:	d1df      	bne.n	800307a <_ZN4core3fmt9Formatter3pad17hbd7112f77e2050f2E+0x56>
 80030ba:	4629      	mov	r1, r5
 80030bc:	2900      	cmp	r1, #0
 80030be:	bf0c      	ite	eq
 80030c0:	4690      	moveq	r8, r2
 80030c2:	460d      	movne	r5, r1
 80030c4:	f1bc 0f00 	cmp.w	ip, #0
 80030c8:	d071      	beq.n	80031ae <_ZN4core3fmt9Formatter3pad17hbd7112f77e2050f2E+0x18a>
 80030ca:	f8d0 9004 	ldr.w	r9, [r0, #4]
 80030ce:	f1b8 0f10 	cmp.w	r8, #16
 80030d2:	d237      	bcs.n	8003144 <_ZN4core3fmt9Formatter3pad17hbd7112f77e2050f2E+0x120>
 80030d4:	f1b8 0f00 	cmp.w	r8, #0
 80030d8:	d03c      	beq.n	8003154 <_ZN4core3fmt9Formatter3pad17hbd7112f77e2050f2E+0x130>
 80030da:	f008 0c03 	and.w	ip, r8, #3
 80030de:	ea5f 0298 	movs.w	r2, r8, lsr #2
 80030e2:	f04f 0100 	mov.w	r1, #0
 80030e6:	d037      	beq.n	8003158 <_ZN4core3fmt9Formatter3pad17hbd7112f77e2050f2E+0x134>
 80030e8:	f002 0203 	and.w	r2, r2, #3
 80030ec:	f105 0a01 	add.w	sl, r5, #1
 80030f0:	46ab      	mov	fp, r5
 80030f2:	eba1 0e82 	sub.w	lr, r1, r2, lsl #2
 80030f6:	f06f 0203 	mvn.w	r2, #3
 80030fa:	eb0a 0402 	add.w	r4, sl, r2
 80030fe:	3204      	adds	r2, #4
 8003100:	f994 6003 	ldrsb.w	r6, [r4, #3]
 8003104:	f994 3006 	ldrsb.w	r3, [r4, #6]
 8003108:	f994 5005 	ldrsb.w	r5, [r4, #5]
 800310c:	f116 0f41 	cmn.w	r6, #65	; 0x41
 8003110:	f994 4004 	ldrsb.w	r4, [r4, #4]
 8003114:	bfc8      	it	gt
 8003116:	3101      	addgt	r1, #1
 8003118:	f114 0f41 	cmn.w	r4, #65	; 0x41
 800311c:	bfc8      	it	gt
 800311e:	3101      	addgt	r1, #1
 8003120:	f115 0f41 	cmn.w	r5, #65	; 0x41
 8003124:	bfc8      	it	gt
 8003126:	3101      	addgt	r1, #1
 8003128:	f113 0f41 	cmn.w	r3, #65	; 0x41
 800312c:	eb0e 0302 	add.w	r3, lr, r2
 8003130:	bfc8      	it	gt
 8003132:	3101      	addgt	r1, #1
 8003134:	3304      	adds	r3, #4
 8003136:	d1e0      	bne.n	80030fa <_ZN4core3fmt9Formatter3pad17hbd7112f77e2050f2E+0xd6>
 8003138:	3204      	adds	r2, #4
 800313a:	465d      	mov	r5, fp
 800313c:	f1bc 0f00 	cmp.w	ip, #0
 8003140:	d10e      	bne.n	8003160 <_ZN4core3fmt9Formatter3pad17hbd7112f77e2050f2E+0x13c>
 8003142:	e025      	b.n	8003190 <_ZN4core3fmt9Formatter3pad17hbd7112f77e2050f2E+0x16c>
 8003144:	4606      	mov	r6, r0
 8003146:	4628      	mov	r0, r5
 8003148:	4641      	mov	r1, r8
 800314a:	f000 f86e 	bl	800322a <_ZN4core3str5count14do_count_chars17hef6d2fa4b441d301E>
 800314e:	4601      	mov	r1, r0
 8003150:	4630      	mov	r0, r6
 8003152:	e01d      	b.n	8003190 <_ZN4core3fmt9Formatter3pad17hbd7112f77e2050f2E+0x16c>
 8003154:	2100      	movs	r1, #0
 8003156:	e01b      	b.n	8003190 <_ZN4core3fmt9Formatter3pad17hbd7112f77e2050f2E+0x16c>
 8003158:	2200      	movs	r2, #0
 800315a:	f1bc 0f00 	cmp.w	ip, #0
 800315e:	d017      	beq.n	8003190 <_ZN4core3fmt9Formatter3pad17hbd7112f77e2050f2E+0x16c>
 8003160:	56ab      	ldrsb	r3, [r5, r2]
 8003162:	f113 0f41 	cmn.w	r3, #65	; 0x41
 8003166:	bfc8      	it	gt
 8003168:	3101      	addgt	r1, #1
 800316a:	f1bc 0f01 	cmp.w	ip, #1
 800316e:	d00f      	beq.n	8003190 <_ZN4core3fmt9Formatter3pad17hbd7112f77e2050f2E+0x16c>
 8003170:	442a      	add	r2, r5
 8003172:	f992 3001 	ldrsb.w	r3, [r2, #1]
 8003176:	f113 0f41 	cmn.w	r3, #65	; 0x41
 800317a:	bfc8      	it	gt
 800317c:	3101      	addgt	r1, #1
 800317e:	f1bc 0f02 	cmp.w	ip, #2
 8003182:	d005      	beq.n	8003190 <_ZN4core3fmt9Formatter3pad17hbd7112f77e2050f2E+0x16c>
 8003184:	f992 2002 	ldrsb.w	r2, [r2, #2]
 8003188:	f112 0f41 	cmn.w	r2, #65	; 0x41
 800318c:	bfc8      	it	gt
 800318e:	3101      	addgt	r1, #1
 8003190:	4589      	cmp	r9, r1
 8003192:	d90c      	bls.n	80031ae <_ZN4core3fmt9Formatter3pad17hbd7112f77e2050f2E+0x18a>
 8003194:	f890 2020 	ldrb.w	r2, [r0, #32]
 8003198:	eba9 0901 	sub.w	r9, r9, r1
 800319c:	2100      	movs	r1, #0
 800319e:	e8df f002 	tbb	[pc, r2]
 80031a2:	0217      	.short	0x0217
 80031a4:	1711      	.short	0x1711
 80031a6:	4649      	mov	r1, r9
 80031a8:	f04f 0900 	mov.w	r9, #0
 80031ac:	e010      	b.n	80031d0 <_ZN4core3fmt9Formatter3pad17hbd7112f77e2050f2E+0x1ac>
 80031ae:	e9d0 0105 	ldrd	r0, r1, [r0, #20]
 80031b2:	4642      	mov	r2, r8
 80031b4:	68cb      	ldr	r3, [r1, #12]
 80031b6:	4629      	mov	r1, r5
 80031b8:	b001      	add	sp, #4
 80031ba:	e8bd 0f00 	ldmia.w	sp!, {r8, r9, sl, fp}
 80031be:	e8bd 40f0 	ldmia.w	sp!, {r4, r5, r6, r7, lr}
 80031c2:	4718      	bx	r3
 80031c4:	f109 0201 	add.w	r2, r9, #1
 80031c8:	ea4f 0159 	mov.w	r1, r9, lsr #1
 80031cc:	ea4f 0952 	mov.w	r9, r2, lsr #1
 80031d0:	e9d0 ab04 	ldrd	sl, fp, [r0, #16]
 80031d4:	1c4c      	adds	r4, r1, #1
 80031d6:	6986      	ldr	r6, [r0, #24]
 80031d8:	3c01      	subs	r4, #1
 80031da:	d006      	beq.n	80031ea <_ZN4core3fmt9Formatter3pad17hbd7112f77e2050f2E+0x1c6>
 80031dc:	6932      	ldr	r2, [r6, #16]
 80031de:	4658      	mov	r0, fp
 80031e0:	4651      	mov	r1, sl
 80031e2:	4790      	blx	r2
 80031e4:	2800      	cmp	r0, #0
 80031e6:	d0f7      	beq.n	80031d8 <_ZN4core3fmt9Formatter3pad17hbd7112f77e2050f2E+0x1b4>
 80031e8:	e005      	b.n	80031f6 <_ZN4core3fmt9Formatter3pad17hbd7112f77e2050f2E+0x1d2>
 80031ea:	68f3      	ldr	r3, [r6, #12]
 80031ec:	4658      	mov	r0, fp
 80031ee:	4629      	mov	r1, r5
 80031f0:	4642      	mov	r2, r8
 80031f2:	4798      	blx	r3
 80031f4:	b120      	cbz	r0, 8003200 <_ZN4core3fmt9Formatter3pad17hbd7112f77e2050f2E+0x1dc>
 80031f6:	2001      	movs	r0, #1
 80031f8:	b001      	add	sp, #4
 80031fa:	e8bd 0f00 	ldmia.w	sp!, {r8, r9, sl, fp}
 80031fe:	bdf0      	pop	{r4, r5, r6, r7, pc}
 8003200:	2500      	movs	r5, #0
 8003202:	45a9      	cmp	r9, r5
 8003204:	d008      	beq.n	8003218 <_ZN4core3fmt9Formatter3pad17hbd7112f77e2050f2E+0x1f4>
 8003206:	6932      	ldr	r2, [r6, #16]
 8003208:	4658      	mov	r0, fp
 800320a:	4651      	mov	r1, sl
 800320c:	4790      	blx	r2
 800320e:	3501      	adds	r5, #1
 8003210:	2800      	cmp	r0, #0
 8003212:	d0f6      	beq.n	8003202 <_ZN4core3fmt9Formatter3pad17hbd7112f77e2050f2E+0x1de>
 8003214:	1e69      	subs	r1, r5, #1
 8003216:	e000      	b.n	800321a <_ZN4core3fmt9Formatter3pad17hbd7112f77e2050f2E+0x1f6>
 8003218:	4649      	mov	r1, r9
 800321a:	2000      	movs	r0, #0
 800321c:	4549      	cmp	r1, r9
 800321e:	bf38      	it	cc
 8003220:	2001      	movcc	r0, #1
 8003222:	b001      	add	sp, #4
 8003224:	e8bd 0f00 	ldmia.w	sp!, {r8, r9, sl, fp}
 8003228:	bdf0      	pop	{r4, r5, r6, r7, pc}

0800322a <_ZN4core3str5count14do_count_chars17hef6d2fa4b441d301E>:
 800322a:	b5f0      	push	{r4, r5, r6, r7, lr}
 800322c:	af03      	add	r7, sp, #12
 800322e:	e92d 0f00 	stmdb	sp!, {r8, r9, sl, fp}
 8003232:	b082      	sub	sp, #8
 8003234:	4681      	mov	r9, r0
 8003236:	3003      	adds	r0, #3
 8003238:	f020 0a03 	bic.w	sl, r0, #3
 800323c:	ebaa 0809 	sub.w	r8, sl, r9
 8003240:	4541      	cmp	r1, r8
 8003242:	d30a      	bcc.n	800325a <_ZN4core3str5count14do_count_chars17hef6d2fa4b441d301E+0x30>
 8003244:	eba1 0e08 	sub.w	lr, r1, r8
 8003248:	ea5f 0c9e 	movs.w	ip, lr, lsr #2
 800324c:	d005      	beq.n	800325a <_ZN4core3str5count14do_count_chars17hef6d2fa4b441d301E+0x30>
 800324e:	f00e 0203 	and.w	r2, lr, #3
 8003252:	45ca      	cmp	sl, r9
 8003254:	d15a      	bne.n	800330c <_ZN4core3str5count14do_count_chars17hef6d2fa4b441d301E+0xe2>
 8003256:	2000      	movs	r0, #0
 8003258:	e0a0      	b.n	800339c <_ZN4core3str5count14do_count_chars17hef6d2fa4b441d301E+0x172>
 800325a:	b389      	cbz	r1, 80032c0 <_ZN4core3str5count14do_count_chars17hef6d2fa4b441d301E+0x96>
 800325c:	f001 0c03 	and.w	ip, r1, #3
 8003260:	088a      	lsrs	r2, r1, #2
 8003262:	f04f 0000 	mov.w	r0, #0
 8003266:	d030      	beq.n	80032ca <_ZN4core3str5count14do_count_chars17hef6d2fa4b441d301E+0xa0>
 8003268:	eba0 0e82 	sub.w	lr, r0, r2, lsl #2
 800326c:	f109 0601 	add.w	r6, r9, #1
 8003270:	f06f 0503 	mvn.w	r5, #3
 8003274:	1973      	adds	r3, r6, r5
 8003276:	3504      	adds	r5, #4
 8003278:	f993 1003 	ldrsb.w	r1, [r3, #3]
 800327c:	f993 4006 	ldrsb.w	r4, [r3, #6]
 8003280:	f993 2005 	ldrsb.w	r2, [r3, #5]
 8003284:	f111 0f41 	cmn.w	r1, #65	; 0x41
 8003288:	f993 3004 	ldrsb.w	r3, [r3, #4]
 800328c:	bfc8      	it	gt
 800328e:	3001      	addgt	r0, #1
 8003290:	eb0e 0105 	add.w	r1, lr, r5
 8003294:	f113 0f41 	cmn.w	r3, #65	; 0x41
 8003298:	bfc8      	it	gt
 800329a:	3001      	addgt	r0, #1
 800329c:	f112 0f41 	cmn.w	r2, #65	; 0x41
 80032a0:	bfc8      	it	gt
 80032a2:	3001      	addgt	r0, #1
 80032a4:	f114 0f41 	cmn.w	r4, #65	; 0x41
 80032a8:	bfc8      	it	gt
 80032aa:	3001      	addgt	r0, #1
 80032ac:	3104      	adds	r1, #4
 80032ae:	d1e1      	bne.n	8003274 <_ZN4core3str5count14do_count_chars17hef6d2fa4b441d301E+0x4a>
 80032b0:	1d2a      	adds	r2, r5, #4
 80032b2:	f1bc 0f00 	cmp.w	ip, #0
 80032b6:	d10c      	bne.n	80032d2 <_ZN4core3str5count14do_count_chars17hef6d2fa4b441d301E+0xa8>
 80032b8:	b002      	add	sp, #8
 80032ba:	e8bd 0f00 	ldmia.w	sp!, {r8, r9, sl, fp}
 80032be:	bdf0      	pop	{r4, r5, r6, r7, pc}
 80032c0:	2000      	movs	r0, #0
 80032c2:	b002      	add	sp, #8
 80032c4:	e8bd 0f00 	ldmia.w	sp!, {r8, r9, sl, fp}
 80032c8:	bdf0      	pop	{r4, r5, r6, r7, pc}
 80032ca:	2200      	movs	r2, #0
 80032cc:	f1bc 0f00 	cmp.w	ip, #0
 80032d0:	d0f2      	beq.n	80032b8 <_ZN4core3str5count14do_count_chars17hef6d2fa4b441d301E+0x8e>
 80032d2:	f919 1002 	ldrsb.w	r1, [r9, r2]
 80032d6:	f111 0f41 	cmn.w	r1, #65	; 0x41
 80032da:	bfc8      	it	gt
 80032dc:	3001      	addgt	r0, #1
 80032de:	f1bc 0f01 	cmp.w	ip, #1
 80032e2:	d0e9      	beq.n	80032b8 <_ZN4core3str5count14do_count_chars17hef6d2fa4b441d301E+0x8e>
 80032e4:	444a      	add	r2, r9
 80032e6:	f992 1001 	ldrsb.w	r1, [r2, #1]
 80032ea:	f111 0f41 	cmn.w	r1, #65	; 0x41
 80032ee:	bfc8      	it	gt
 80032f0:	3001      	addgt	r0, #1
 80032f2:	f1bc 0f02 	cmp.w	ip, #2
 80032f6:	d0df      	beq.n	80032b8 <_ZN4core3str5count14do_count_chars17hef6d2fa4b441d301E+0x8e>
 80032f8:	f992 1002 	ldrsb.w	r1, [r2, #2]
 80032fc:	f111 0f41 	cmn.w	r1, #65	; 0x41
 8003300:	bfc8      	it	gt
 8003302:	3001      	addgt	r0, #1
 8003304:	b002      	add	sp, #8
 8003306:	e8bd 0f00 	ldmia.w	sp!, {r8, r9, sl, fp}
 800330a:	bdf0      	pop	{r4, r5, r6, r7, pc}
 800330c:	eba9 000a 	sub.w	r0, r9, sl
 8003310:	f110 0f04 	cmn.w	r0, #4
 8003314:	d902      	bls.n	800331c <_ZN4core3str5count14do_count_chars17hef6d2fa4b441d301E+0xf2>
 8003316:	2000      	movs	r0, #0
 8003318:	2500      	movs	r5, #0
 800331a:	e023      	b.n	8003364 <_ZN4core3str5count14do_count_chars17hef6d2fa4b441d301E+0x13a>
 800331c:	f109 0b01 	add.w	fp, r9, #1
 8003320:	2000      	movs	r0, #0
 8003322:	f06f 0603 	mvn.w	r6, #3
 8003326:	eb0b 0506 	add.w	r5, fp, r6
 800332a:	f995 4003 	ldrsb.w	r4, [r5, #3]
 800332e:	f995 3006 	ldrsb.w	r3, [r5, #6]
 8003332:	f995 1005 	ldrsb.w	r1, [r5, #5]
 8003336:	f114 0f41 	cmn.w	r4, #65	; 0x41
 800333a:	f995 5004 	ldrsb.w	r5, [r5, #4]
 800333e:	bfc8      	it	gt
 8003340:	3001      	addgt	r0, #1
 8003342:	f115 0f41 	cmn.w	r5, #65	; 0x41
 8003346:	bfc8      	it	gt
 8003348:	3001      	addgt	r0, #1
 800334a:	f111 0f41 	cmn.w	r1, #65	; 0x41
 800334e:	bfc8      	it	gt
 8003350:	3001      	addgt	r0, #1
 8003352:	f113 0f41 	cmn.w	r3, #65	; 0x41
 8003356:	bfc8      	it	gt
 8003358:	3001      	addgt	r0, #1
 800335a:	f116 0508 	adds.w	r5, r6, #8
 800335e:	f106 0604 	add.w	r6, r6, #4
 8003362:	d1e0      	bne.n	8003326 <_ZN4core3str5count14do_count_chars17hef6d2fa4b441d301E+0xfc>
 8003364:	45ca      	cmp	sl, r9
 8003366:	d019      	beq.n	800339c <_ZN4core3str5count14do_count_chars17hef6d2fa4b441d301E+0x172>
 8003368:	f919 1005 	ldrsb.w	r1, [r9, r5]
 800336c:	f111 0f41 	cmn.w	r1, #65	; 0x41
 8003370:	bfc8      	it	gt
 8003372:	3001      	addgt	r0, #1
 8003374:	f1b8 0f01 	cmp.w	r8, #1
 8003378:	d010      	beq.n	800339c <_ZN4core3str5count14do_count_chars17hef6d2fa4b441d301E+0x172>
 800337a:	eb09 0105 	add.w	r1, r9, r5
 800337e:	f991 3001 	ldrsb.w	r3, [r1, #1]
 8003382:	f113 0f41 	cmn.w	r3, #65	; 0x41
 8003386:	bfc8      	it	gt
 8003388:	3001      	addgt	r0, #1
 800338a:	f1b8 0f02 	cmp.w	r8, #2
 800338e:	d005      	beq.n	800339c <_ZN4core3str5count14do_count_chars17hef6d2fa4b441d301E+0x172>
 8003390:	f991 1002 	ldrsb.w	r1, [r1, #2]
 8003394:	f111 0f41 	cmn.w	r1, #65	; 0x41
 8003398:	bfc8      	it	gt
 800339a:	3001      	addgt	r0, #1
 800339c:	eb09 0408 	add.w	r4, r9, r8
 80033a0:	2300      	movs	r3, #0
 80033a2:	b1c2      	cbz	r2, 80033d6 <_ZN4core3str5count14do_count_chars17hef6d2fa4b441d301E+0x1ac>
 80033a4:	f02e 0103 	bic.w	r1, lr, #3
 80033a8:	4421      	add	r1, r4
 80033aa:	f991 6000 	ldrsb.w	r6, [r1]
 80033ae:	f116 0f41 	cmn.w	r6, #65	; 0x41
 80033b2:	bfc8      	it	gt
 80033b4:	2301      	movgt	r3, #1
 80033b6:	2a01      	cmp	r2, #1
 80033b8:	d00d      	beq.n	80033d6 <_ZN4core3str5count14do_count_chars17hef6d2fa4b441d301E+0x1ac>
 80033ba:	f991 6001 	ldrsb.w	r6, [r1, #1]
 80033be:	f116 0f41 	cmn.w	r6, #65	; 0x41
 80033c2:	bfc8      	it	gt
 80033c4:	3301      	addgt	r3, #1
 80033c6:	2a02      	cmp	r2, #2
 80033c8:	d005      	beq.n	80033d6 <_ZN4core3str5count14do_count_chars17hef6d2fa4b441d301E+0x1ac>
 80033ca:	f991 1002 	ldrsb.w	r1, [r1, #2]
 80033ce:	f111 0f41 	cmn.w	r1, #65	; 0x41
 80033d2:	bfc8      	it	gt
 80033d4:	3301      	addgt	r3, #1
 80033d6:	4418      	add	r0, r3
 80033d8:	e012      	b.n	8003400 <_ZN4core3str5count14do_count_chars17hef6d2fa4b441d301E+0x1d6>
 80033da:	f04f 0800 	mov.w	r8, #0
 80033de:	fa3f f288 	uxtb16	r2, r8
 80033e2:	fa3f f398 	uxtb16	r3, r8, ror #8
 80033e6:	441a      	add	r2, r3
 80033e8:	ebac 0c0b 	sub.w	ip, ip, fp
 80033ec:	eb0a 048b 	add.w	r4, sl, fp, lsl #2
 80033f0:	f01b 0103 	ands.w	r1, fp, #3
 80033f4:	eb02 4202 	add.w	r2, r2, r2, lsl #16
 80033f8:	eb00 4012 	add.w	r0, r0, r2, lsr #16
 80033fc:	f040 8149 	bne.w	8003692 <_ZN4core3str5count14do_count_chars17hef6d2fa4b441d301E+0x468>
 8003400:	f1bc 0f00 	cmp.w	ip, #0
 8003404:	f43f af58 	beq.w	80032b8 <_ZN4core3str5count14do_count_chars17hef6d2fa4b441d301E+0x8e>
 8003408:	f1bc 0fc0 	cmp.w	ip, #192	; 0xc0
 800340c:	46e3      	mov	fp, ip
 800340e:	bf28      	it	cs
 8003410:	f04f 0bc0 	movcs.w	fp, #192	; 0xc0
 8003414:	46a2      	mov	sl, r4
 8003416:	f1bc 0f04 	cmp.w	ip, #4
 800341a:	d3de      	bcc.n	80033da <_ZN4core3str5count14do_count_chars17hef6d2fa4b441d301E+0x1b0>
 800341c:	f06f 010f 	mvn.w	r1, #15
 8003420:	2201      	movs	r2, #1
 8003422:	eb01 018b 	add.w	r1, r1, fp, lsl #2
 8003426:	2930      	cmp	r1, #48	; 0x30
 8003428:	eb02 1211 	add.w	r2, r2, r1, lsr #4
 800342c:	e9cd 2a00 	strd	r2, sl, [sp]
 8003430:	d203      	bcs.n	800343a <_ZN4core3str5count14do_count_chars17hef6d2fa4b441d301E+0x210>
 8003432:	f04f 0800 	mov.w	r8, #0
 8003436:	4654      	mov	r4, sl
 8003438:	e0ab      	b.n	8003592 <_ZN4core3str5count14do_count_chars17hef6d2fa4b441d301E+0x368>
 800343a:	f022 0903 	bic.w	r9, r2, #3
 800343e:	f04f 0800 	mov.w	r8, #0
 8003442:	4654      	mov	r4, sl
 8003444:	e894 040e 	ldmia.w	r4, {r1, r2, r3, sl}
 8003448:	f1b9 0904 	subs.w	r9, r9, #4
 800344c:	69a6      	ldr	r6, [r4, #24]
 800344e:	ea6f 0e01 	mvn.w	lr, r1
 8003452:	ea4f 15de 	mov.w	r5, lr, lsr #7
 8003456:	ea45 1191 	orr.w	r1, r5, r1, lsr #6
 800345a:	ea6f 0502 	mvn.w	r5, r2
 800345e:	f021 31fe 	bic.w	r1, r1, #4278124286	; 0xfefefefe
 8003462:	ea4f 15d5 	mov.w	r5, r5, lsr #7
 8003466:	ea45 1292 	orr.w	r2, r5, r2, lsr #6
 800346a:	4441      	add	r1, r8
 800346c:	f022 32fe 	bic.w	r2, r2, #4278124286	; 0xfefefefe
 8003470:	440a      	add	r2, r1
 8003472:	ea6f 0103 	mvn.w	r1, r3
 8003476:	ea4f 15d1 	mov.w	r5, r1, lsr #7
 800347a:	ea45 1393 	orr.w	r3, r5, r3, lsr #6
 800347e:	f023 33fe 	bic.w	r3, r3, #4278124286	; 0xfefefefe
 8003482:	6925      	ldr	r5, [r4, #16]
 8003484:	441a      	add	r2, r3
 8003486:	ea6f 030a 	mvn.w	r3, sl
 800348a:	ea4f 13d3 	mov.w	r3, r3, lsr #7
 800348e:	6961      	ldr	r1, [r4, #20]
 8003490:	ea43 139a 	orr.w	r3, r3, sl, lsr #6
 8003494:	f8d4 8038 	ldr.w	r8, [r4, #56]	; 0x38
 8003498:	f023 33fe 	bic.w	r3, r3, #4278124286	; 0xfefefefe
 800349c:	f8d4 e03c 	ldr.w	lr, [r4, #60]	; 0x3c
 80034a0:	441a      	add	r2, r3
 80034a2:	ea6f 0305 	mvn.w	r3, r5
 80034a6:	ea4f 13d3 	mov.w	r3, r3, lsr #7
 80034aa:	ea43 1395 	orr.w	r3, r3, r5, lsr #6
 80034ae:	69e5      	ldr	r5, [r4, #28]
 80034b0:	f023 33fe 	bic.w	r3, r3, #4278124286	; 0xfefefefe
 80034b4:	441a      	add	r2, r3
 80034b6:	ea6f 0301 	mvn.w	r3, r1
 80034ba:	ea4f 13d3 	mov.w	r3, r3, lsr #7
 80034be:	ea43 1191 	orr.w	r1, r3, r1, lsr #6
 80034c2:	f021 31fe 	bic.w	r1, r1, #4278124286	; 0xfefefefe
 80034c6:	6a23      	ldr	r3, [r4, #32]
 80034c8:	4411      	add	r1, r2
 80034ca:	ea6f 0206 	mvn.w	r2, r6
 80034ce:	ea4f 12d2 	mov.w	r2, r2, lsr #7
 80034d2:	ea42 1296 	orr.w	r2, r2, r6, lsr #6
 80034d6:	6a66      	ldr	r6, [r4, #36]	; 0x24
 80034d8:	f022 32fe 	bic.w	r2, r2, #4278124286	; 0xfefefefe
 80034dc:	4411      	add	r1, r2
 80034de:	ea6f 0205 	mvn.w	r2, r5
 80034e2:	ea4f 12d2 	mov.w	r2, r2, lsr #7
 80034e6:	ea42 1295 	orr.w	r2, r2, r5, lsr #6
 80034ea:	6aa5      	ldr	r5, [r4, #40]	; 0x28
 80034ec:	f022 32fe 	bic.w	r2, r2, #4278124286	; 0xfefefefe
 80034f0:	4411      	add	r1, r2
 80034f2:	ea6f 0203 	mvn.w	r2, r3
 80034f6:	ea4f 12d2 	mov.w	r2, r2, lsr #7
 80034fa:	ea42 1293 	orr.w	r2, r2, r3, lsr #6
 80034fe:	6ae3      	ldr	r3, [r4, #44]	; 0x2c
 8003500:	f022 32fe 	bic.w	r2, r2, #4278124286	; 0xfefefefe
 8003504:	4411      	add	r1, r2
 8003506:	ea6f 0206 	mvn.w	r2, r6
 800350a:	ea4f 12d2 	mov.w	r2, r2, lsr #7
 800350e:	ea42 1296 	orr.w	r2, r2, r6, lsr #6
 8003512:	6b26      	ldr	r6, [r4, #48]	; 0x30
 8003514:	f022 32fe 	bic.w	r2, r2, #4278124286	; 0xfefefefe
 8003518:	4411      	add	r1, r2
 800351a:	ea6f 0205 	mvn.w	r2, r5
 800351e:	ea4f 12d2 	mov.w	r2, r2, lsr #7
 8003522:	ea42 1295 	orr.w	r2, r2, r5, lsr #6
 8003526:	6b65      	ldr	r5, [r4, #52]	; 0x34
 8003528:	f022 32fe 	bic.w	r2, r2, #4278124286	; 0xfefefefe
 800352c:	f104 0440 	add.w	r4, r4, #64	; 0x40
 8003530:	4411      	add	r1, r2
 8003532:	ea6f 0203 	mvn.w	r2, r3
 8003536:	ea4f 12d2 	mov.w	r2, r2, lsr #7
 800353a:	ea42 1293 	orr.w	r2, r2, r3, lsr #6
 800353e:	f022 32fe 	bic.w	r2, r2, #4278124286	; 0xfefefefe
 8003542:	4411      	add	r1, r2
 8003544:	ea6f 0206 	mvn.w	r2, r6
 8003548:	ea4f 12d2 	mov.w	r2, r2, lsr #7
 800354c:	ea42 1296 	orr.w	r2, r2, r6, lsr #6
 8003550:	f022 32fe 	bic.w	r2, r2, #4278124286	; 0xfefefefe
 8003554:	4411      	add	r1, r2
 8003556:	ea6f 0205 	mvn.w	r2, r5
 800355a:	ea4f 12d2 	mov.w	r2, r2, lsr #7
 800355e:	ea42 1295 	orr.w	r2, r2, r5, lsr #6
 8003562:	f022 32fe 	bic.w	r2, r2, #4278124286	; 0xfefefefe
 8003566:	4411      	add	r1, r2
 8003568:	ea6f 0208 	mvn.w	r2, r8
 800356c:	ea4f 12d2 	mov.w	r2, r2, lsr #7
 8003570:	ea42 1298 	orr.w	r2, r2, r8, lsr #6
 8003574:	f022 32fe 	bic.w	r2, r2, #4278124286	; 0xfefefefe
 8003578:	4411      	add	r1, r2
 800357a:	ea6f 020e 	mvn.w	r2, lr
 800357e:	ea4f 12d2 	mov.w	r2, r2, lsr #7
 8003582:	ea42 129e 	orr.w	r2, r2, lr, lsr #6
 8003586:	f022 32fe 	bic.w	r2, r2, #4278124286	; 0xfefefefe
 800358a:	eb02 0801 	add.w	r8, r2, r1
 800358e:	f47f af59 	bne.w	8003444 <_ZN4core3str5count14do_count_chars17hef6d2fa4b441d301E+0x21a>
 8003592:	9900      	ldr	r1, [sp, #0]
 8003594:	f8dd a004 	ldr.w	sl, [sp, #4]
 8003598:	f011 0e03 	ands.w	lr, r1, #3
 800359c:	f43f af1f 	beq.w	80033de <_ZN4core3str5count14do_count_chars17hef6d2fa4b441d301E+0x1b4>
 80035a0:	e894 004c 	ldmia.w	r4, {r2, r3, r6}
 80035a4:	f1be 0f01 	cmp.w	lr, #1
 80035a8:	68e5      	ldr	r5, [r4, #12]
 80035aa:	ea6f 0102 	mvn.w	r1, r2
 80035ae:	ea4f 11d1 	mov.w	r1, r1, lsr #7
 80035b2:	ea41 1192 	orr.w	r1, r1, r2, lsr #6
 80035b6:	ea6f 0203 	mvn.w	r2, r3
 80035ba:	ea4f 12d2 	mov.w	r2, r2, lsr #7
 80035be:	f021 31fe 	bic.w	r1, r1, #4278124286	; 0xfefefefe
 80035c2:	ea42 1293 	orr.w	r2, r2, r3, lsr #6
 80035c6:	4441      	add	r1, r8
 80035c8:	f022 32fe 	bic.w	r2, r2, #4278124286	; 0xfefefefe
 80035cc:	4411      	add	r1, r2
 80035ce:	ea6f 0206 	mvn.w	r2, r6
 80035d2:	ea4f 12d2 	mov.w	r2, r2, lsr #7
 80035d6:	ea42 1296 	orr.w	r2, r2, r6, lsr #6
 80035da:	f022 32fe 	bic.w	r2, r2, #4278124286	; 0xfefefefe
 80035de:	4411      	add	r1, r2
 80035e0:	ea6f 0205 	mvn.w	r2, r5
 80035e4:	ea4f 12d2 	mov.w	r2, r2, lsr #7
 80035e8:	ea42 1295 	orr.w	r2, r2, r5, lsr #6
 80035ec:	f022 32fe 	bic.w	r2, r2, #4278124286	; 0xfefefefe
 80035f0:	eb02 0801 	add.w	r8, r2, r1
 80035f4:	f43f aef3 	beq.w	80033de <_ZN4core3str5count14do_count_chars17hef6d2fa4b441d301E+0x1b4>
 80035f8:	f104 0510 	add.w	r5, r4, #16
 80035fc:	f1be 0f02 	cmp.w	lr, #2
 8003600:	cd2e      	ldmia	r5, {r1, r2, r3, r5}
 8003602:	ea6f 0601 	mvn.w	r6, r1
 8003606:	ea4f 16d6 	mov.w	r6, r6, lsr #7
 800360a:	ea46 1191 	orr.w	r1, r6, r1, lsr #6
 800360e:	ea6f 0602 	mvn.w	r6, r2
 8003612:	f021 31fe 	bic.w	r1, r1, #4278124286	; 0xfefefefe
 8003616:	ea4f 16d6 	mov.w	r6, r6, lsr #7
 800361a:	ea46 1292 	orr.w	r2, r6, r2, lsr #6
 800361e:	4441      	add	r1, r8
 8003620:	f022 32fe 	bic.w	r2, r2, #4278124286	; 0xfefefefe
 8003624:	4411      	add	r1, r2
 8003626:	ea6f 0203 	mvn.w	r2, r3
 800362a:	ea4f 12d2 	mov.w	r2, r2, lsr #7
 800362e:	ea42 1293 	orr.w	r2, r2, r3, lsr #6
 8003632:	f022 32fe 	bic.w	r2, r2, #4278124286	; 0xfefefefe
 8003636:	4411      	add	r1, r2
 8003638:	ea6f 0205 	mvn.w	r2, r5
 800363c:	ea4f 12d2 	mov.w	r2, r2, lsr #7
 8003640:	ea42 1295 	orr.w	r2, r2, r5, lsr #6
 8003644:	f022 32fe 	bic.w	r2, r2, #4278124286	; 0xfefefefe
 8003648:	eb02 0801 	add.w	r8, r2, r1
 800364c:	f43f aec7 	beq.w	80033de <_ZN4core3str5count14do_count_chars17hef6d2fa4b441d301E+0x1b4>
 8003650:	f104 0620 	add.w	r6, r4, #32
 8003654:	ce4e      	ldmia	r6, {r1, r2, r3, r6}
 8003656:	43cd      	mvns	r5, r1
 8003658:	09ed      	lsrs	r5, r5, #7
 800365a:	ea45 1191 	orr.w	r1, r5, r1, lsr #6
 800365e:	43d5      	mvns	r5, r2
 8003660:	f021 31fe 	bic.w	r1, r1, #4278124286	; 0xfefefefe
 8003664:	09ed      	lsrs	r5, r5, #7
 8003666:	ea45 1292 	orr.w	r2, r5, r2, lsr #6
 800366a:	4441      	add	r1, r8
 800366c:	f022 32fe 	bic.w	r2, r2, #4278124286	; 0xfefefefe
 8003670:	4411      	add	r1, r2
 8003672:	43da      	mvns	r2, r3
 8003674:	09d2      	lsrs	r2, r2, #7
 8003676:	ea42 1293 	orr.w	r2, r2, r3, lsr #6
 800367a:	f022 32fe 	bic.w	r2, r2, #4278124286	; 0xfefefefe
 800367e:	4411      	add	r1, r2
 8003680:	43f2      	mvns	r2, r6
 8003682:	09d2      	lsrs	r2, r2, #7
 8003684:	ea42 1296 	orr.w	r2, r2, r6, lsr #6
 8003688:	f022 32fe 	bic.w	r2, r2, #4278124286	; 0xfefefefe
 800368c:	eb02 0801 	add.w	r8, r2, r1
 8003690:	e6a5      	b.n	80033de <_ZN4core3str5count14do_count_chars17hef6d2fa4b441d301E+0x1b4>
 8003692:	f00b 03fc 	and.w	r3, fp, #252	; 0xfc
 8003696:	2901      	cmp	r1, #1
 8003698:	f85a 2023 	ldr.w	r2, [sl, r3, lsl #2]
 800369c:	ea6f 0602 	mvn.w	r6, r2
 80036a0:	ea4f 16d6 	mov.w	r6, r6, lsr #7
 80036a4:	ea46 1292 	orr.w	r2, r6, r2, lsr #6
 80036a8:	f022 32fe 	bic.w	r2, r2, #4278124286	; 0xfefefefe
 80036ac:	d015      	beq.n	80036da <_ZN4core3str5count14do_count_chars17hef6d2fa4b441d301E+0x4b0>
 80036ae:	eb0a 0383 	add.w	r3, sl, r3, lsl #2
 80036b2:	2902      	cmp	r1, #2
 80036b4:	685e      	ldr	r6, [r3, #4]
 80036b6:	ea6f 0506 	mvn.w	r5, r6
 80036ba:	ea4f 15d5 	mov.w	r5, r5, lsr #7
 80036be:	ea45 1696 	orr.w	r6, r5, r6, lsr #6
 80036c2:	f026 36fe 	bic.w	r6, r6, #4278124286	; 0xfefefefe
 80036c6:	4432      	add	r2, r6
 80036c8:	d007      	beq.n	80036da <_ZN4core3str5count14do_count_chars17hef6d2fa4b441d301E+0x4b0>
 80036ca:	6899      	ldr	r1, [r3, #8]
 80036cc:	43cb      	mvns	r3, r1
 80036ce:	09db      	lsrs	r3, r3, #7
 80036d0:	ea43 1191 	orr.w	r1, r3, r1, lsr #6
 80036d4:	f021 31fe 	bic.w	r1, r1, #4278124286	; 0xfefefefe
 80036d8:	440a      	add	r2, r1
 80036da:	fa3f f182 	uxtb16	r1, r2
 80036de:	fa3f f292 	uxtb16	r2, r2, ror #8
 80036e2:	4411      	add	r1, r2
 80036e4:	eb01 4101 	add.w	r1, r1, r1, lsl #16
 80036e8:	eb00 4011 	add.w	r0, r0, r1, lsr #16
 80036ec:	b002      	add	sp, #8
 80036ee:	e8bd 0f00 	ldmia.w	sp!, {r8, r9, sl, fp}
 80036f2:	bdf0      	pop	{r4, r5, r6, r7, pc}

080036f4 <_ZN4core9panicking11panic_const24panic_const_add_overflow17hb5ed77c43929dd68E>:
 80036f4:	b580      	push	{r7, lr}
 80036f6:	466f      	mov	r7, sp
 80036f8:	b086      	sub	sp, #24
 80036fa:	4601      	mov	r1, r0
 80036fc:	2000      	movs	r0, #0
 80036fe:	2201      	movs	r2, #1
 8003700:	9004      	str	r0, [sp, #16]
 8003702:	9201      	str	r2, [sp, #4]
 8003704:	f644 2274 	movw	r2, #19060	; 0x4a74
 8003708:	9003      	str	r0, [sp, #12]
 800370a:	2004      	movs	r0, #4
 800370c:	f6c0 0200 	movt	r2, #2048	; 0x800
 8003710:	9002      	str	r0, [sp, #8]
 8003712:	4668      	mov	r0, sp
 8003714:	9200      	str	r2, [sp, #0]
 8003716:	f7ff fa72 	bl	8002bfe <_ZN4core9panicking9panic_fmt17h1f6c43f1b09e8ccbE>

0800371a <_ZN4core9panicking11panic_const24panic_const_sub_overflow17hda0baad704454db2E>:
 800371a:	b580      	push	{r7, lr}
 800371c:	466f      	mov	r7, sp
 800371e:	b086      	sub	sp, #24
 8003720:	4601      	mov	r1, r0
 8003722:	2000      	movs	r0, #0
 8003724:	2201      	movs	r2, #1
 8003726:	9004      	str	r0, [sp, #16]
 8003728:	9201      	str	r2, [sp, #4]
 800372a:	f644 22a0 	movw	r2, #19104	; 0x4aa0
 800372e:	9003      	str	r0, [sp, #12]
 8003730:	2004      	movs	r0, #4
 8003732:	f6c0 0200 	movt	r2, #2048	; 0x800
 8003736:	9002      	str	r0, [sp, #8]
 8003738:	4668      	mov	r0, sp
 800373a:	9200      	str	r2, [sp, #0]
 800373c:	f7ff fa5f 	bl	8002bfe <_ZN4core9panicking9panic_fmt17h1f6c43f1b09e8ccbE>

08003740 <_ZN4core9panicking11panic_const24panic_const_mul_overflow17h7dd007db0c33601cE>:
 8003740:	b580      	push	{r7, lr}
 8003742:	466f      	mov	r7, sp
 8003744:	b086      	sub	sp, #24
 8003746:	4601      	mov	r1, r0
 8003748:	2000      	movs	r0, #0
 800374a:	2201      	movs	r2, #1
 800374c:	9004      	str	r0, [sp, #16]
 800374e:	9201      	str	r2, [sp, #4]
 8003750:	f644 22cc 	movw	r2, #19148	; 0x4acc
 8003754:	9003      	str	r0, [sp, #12]
 8003756:	2004      	movs	r0, #4
 8003758:	f6c0 0200 	movt	r2, #2048	; 0x800
 800375c:	9002      	str	r0, [sp, #8]
 800375e:	4668      	mov	r0, sp
 8003760:	9200      	str	r2, [sp, #0]
 8003762:	f7ff fa4c 	bl	8002bfe <_ZN4core9panicking9panic_fmt17h1f6c43f1b09e8ccbE>

08003766 <_ZN4core9panicking11panic_const24panic_const_shl_overflow17hb0b6b21a6bef7f06E>:
 8003766:	b580      	push	{r7, lr}
 8003768:	466f      	mov	r7, sp
 800376a:	b086      	sub	sp, #24
 800376c:	4601      	mov	r1, r0
 800376e:	2000      	movs	r0, #0
 8003770:	2201      	movs	r2, #1
 8003772:	9004      	str	r0, [sp, #16]
 8003774:	9201      	str	r2, [sp, #4]
 8003776:	f644 22f8 	movw	r2, #19192	; 0x4af8
 800377a:	9003      	str	r0, [sp, #12]
 800377c:	2004      	movs	r0, #4
 800377e:	f6c0 0200 	movt	r2, #2048	; 0x800
 8003782:	9002      	str	r0, [sp, #8]
 8003784:	4668      	mov	r0, sp
 8003786:	9200      	str	r2, [sp, #0]
 8003788:	f7ff fa39 	bl	8002bfe <_ZN4core9panicking9panic_fmt17h1f6c43f1b09e8ccbE>

0800378c <_ZN4core9panicking11panic_const23panic_const_div_by_zero17h2a31fcd9fa76bd10E>:
 800378c:	b580      	push	{r7, lr}
 800378e:	466f      	mov	r7, sp
 8003790:	b086      	sub	sp, #24
 8003792:	4601      	mov	r1, r0
 8003794:	2000      	movs	r0, #0
 8003796:	2201      	movs	r2, #1
 8003798:	9004      	str	r0, [sp, #16]
 800379a:	9201      	str	r2, [sp, #4]
 800379c:	f644 428c 	movw	r2, #19596	; 0x4c8c
 80037a0:	9003      	str	r0, [sp, #12]
 80037a2:	2004      	movs	r0, #4
 80037a4:	f6c0 0200 	movt	r2, #2048	; 0x800
 80037a8:	9002      	str	r0, [sp, #8]
 80037aa:	4668      	mov	r0, sp
 80037ac:	9200      	str	r2, [sp, #0]
 80037ae:	f7ff fa26 	bl	8002bfe <_ZN4core9panicking9panic_fmt17h1f6c43f1b09e8ccbE>

080037b2 <_ZN4core9panicking11panic_const23panic_const_rem_by_zero17hd3bee78dc921673dE>:
 80037b2:	b580      	push	{r7, lr}
 80037b4:	466f      	mov	r7, sp
 80037b6:	b086      	sub	sp, #24
 80037b8:	4601      	mov	r1, r0
 80037ba:	2000      	movs	r0, #0
 80037bc:	2201      	movs	r2, #1
 80037be:	9004      	str	r0, [sp, #16]
 80037c0:	9201      	str	r2, [sp, #4]
 80037c2:	f644 42d0 	movw	r2, #19664	; 0x4cd0
 80037c6:	9003      	str	r0, [sp, #12]
 80037c8:	2004      	movs	r0, #4
 80037ca:	f6c0 0200 	movt	r2, #2048	; 0x800
 80037ce:	9002      	str	r0, [sp, #8]
 80037d0:	4668      	mov	r0, sp
 80037d2:	9200      	str	r2, [sp, #0]
 80037d4:	f7ff fa13 	bl	8002bfe <_ZN4core9panicking9panic_fmt17h1f6c43f1b09e8ccbE>

080037d8 <_ZN4core3fmt3num3imp52_$LT$impl$u20$core..fmt..Display$u20$for$u20$u32$GT$3fmt17h1ce21d42439e2507E>:
 80037d8:	b5f0      	push	{r4, r5, r6, r7, lr}
 80037da:	af03      	add	r7, sp, #12
 80037dc:	e92d 0f00 	stmdb	sp!, {r8, r9, sl, fp}
 80037e0:	b08d      	sub	sp, #52	; 0x34
 80037e2:	6804      	ldr	r4, [r0, #0]
 80037e4:	f644 30a8 	movw	r0, #19368	; 0x4ba8
 80037e8:	f242 7e10 	movw	lr, #10000	; 0x2710
 80037ec:	460d      	mov	r5, r1
 80037ee:	4574      	cmp	r4, lr
 80037f0:	f6c0 0000 	movt	r0, #2048	; 0x800
 80037f4:	d33d      	bcc.n	8003872 <_ZN4core3fmt3num3imp52_$LT$impl$u20$core..fmt..Display$u20$for$u20$u32$GT$3fmt17h1ce21d42439e2507E+0x9a>
 80037f6:	f241 7859 	movw	r8, #5977	; 0x1759
 80037fa:	f24e 03ff 	movw	r3, #57599	; 0xe0ff
 80037fe:	f1a7 0b43 	sub.w	fp, r7, #67	; 0x43
 8003802:	2100      	movs	r1, #0
 8003804:	f2cd 18b7 	movt	r8, #53687	; 0xd1b7
 8003808:	f241 497b 	movw	r9, #5243	; 0x147b
 800380c:	f04f 0a64 	mov.w	sl, #100	; 0x64
 8003810:	f2c0 53f5 	movt	r3, #1525	; 0x5f5
 8003814:	9502      	str	r5, [sp, #8]
 8003816:	fba4 2508 	umull	r2, r5, r4, r8
 800381a:	eb0b 0c01 	add.w	ip, fp, r1
 800381e:	3904      	subs	r1, #4
 8003820:	429c      	cmp	r4, r3
 8003822:	ea4f 3255 	mov.w	r2, r5, lsr #13
 8003826:	fb02 451e 	mls	r5, r2, lr, r4
 800382a:	4614      	mov	r4, r2
 800382c:	b2ae      	uxth	r6, r5
 800382e:	ea4f 0696 	mov.w	r6, r6, lsr #2
 8003832:	fb06 f609 	mul.w	r6, r6, r9
 8003836:	ea4f 4656 	mov.w	r6, r6, lsr #17
 800383a:	fb06 551a 	mls	r5, r6, sl, r5
 800383e:	f830 6016 	ldrh.w	r6, [r0, r6, lsl #1]
 8003842:	f8ac 6023 	strh.w	r6, [ip, #35]	; 0x23
 8003846:	b2ad      	uxth	r5, r5
 8003848:	f830 5015 	ldrh.w	r5, [r0, r5, lsl #1]
 800384c:	f8ac 5025 	strh.w	r5, [ip, #37]	; 0x25
 8003850:	d8e1      	bhi.n	8003816 <_ZN4core3fmt3num3imp52_$LT$impl$u20$core..fmt..Display$u20$for$u20$u32$GT$3fmt17h1ce21d42439e2507E+0x3e>
 8003852:	9d02      	ldr	r5, [sp, #8]
 8003854:	f101 0327 	add.w	r3, r1, #39	; 0x27
 8003858:	4614      	mov	r4, r2
 800385a:	2c63      	cmp	r4, #99	; 0x63
 800385c:	d80c      	bhi.n	8003878 <_ZN4core3fmt3num3imp52_$LT$impl$u20$core..fmt..Display$u20$for$u20$u32$GT$3fmt17h1ce21d42439e2507E+0xa0>
 800385e:	4621      	mov	r1, r4
 8003860:	290a      	cmp	r1, #10
 8003862:	d31b      	bcc.n	800389c <_ZN4core3fmt3num3imp52_$LT$impl$u20$core..fmt..Display$u20$for$u20$u32$GT$3fmt17h1ce21d42439e2507E+0xc4>
 8003864:	f830 0011 	ldrh.w	r0, [r0, r1, lsl #1]
 8003868:	1e9a      	subs	r2, r3, #2
 800386a:	f1a7 0143 	sub.w	r1, r7, #67	; 0x43
 800386e:	5288      	strh	r0, [r1, r2]
 8003870:	e01a      	b.n	80038a8 <_ZN4core3fmt3num3imp52_$LT$impl$u20$core..fmt..Display$u20$for$u20$u32$GT$3fmt17h1ce21d42439e2507E+0xd0>
 8003872:	2327      	movs	r3, #39	; 0x27
 8003874:	2c63      	cmp	r4, #99	; 0x63
 8003876:	d9f2      	bls.n	800385e <_ZN4core3fmt3num3imp52_$LT$impl$u20$core..fmt..Display$u20$for$u20$u32$GT$3fmt17h1ce21d42439e2507E+0x86>
 8003878:	b2a1      	uxth	r1, r4
 800387a:	f241 427b 	movw	r2, #5243	; 0x147b
 800387e:	0889      	lsrs	r1, r1, #2
 8003880:	3b02      	subs	r3, #2
 8003882:	4351      	muls	r1, r2
 8003884:	2264      	movs	r2, #100	; 0x64
 8003886:	f1a7 0643 	sub.w	r6, r7, #67	; 0x43
 800388a:	0c49      	lsrs	r1, r1, #17
 800388c:	fb01 4212 	mls	r2, r1, r2, r4
 8003890:	b292      	uxth	r2, r2
 8003892:	f830 2012 	ldrh.w	r2, [r0, r2, lsl #1]
 8003896:	52f2      	strh	r2, [r6, r3]
 8003898:	290a      	cmp	r1, #10
 800389a:	d2e3      	bcs.n	8003864 <_ZN4core3fmt3num3imp52_$LT$impl$u20$core..fmt..Display$u20$for$u20$u32$GT$3fmt17h1ce21d42439e2507E+0x8c>
 800389c:	f041 0030 	orr.w	r0, r1, #48	; 0x30
 80038a0:	1e5a      	subs	r2, r3, #1
 80038a2:	f1a7 0143 	sub.w	r1, r7, #67	; 0x43
 80038a6:	5488      	strb	r0, [r1, r2]
 80038a8:	f1c2 0027 	rsb	r0, r2, #39	; 0x27
 80038ac:	4411      	add	r1, r2
 80038ae:	2201      	movs	r2, #1
 80038b0:	2300      	movs	r3, #0
 80038b2:	e9cd 1000 	strd	r1, r0, [sp]
 80038b6:	4628      	mov	r0, r5
 80038b8:	2101      	movs	r1, #1
 80038ba:	f7ff fa2f 	bl	8002d1c <_ZN4core3fmt9Formatter12pad_integral17h4f55246c3f68aa69E>
 80038be:	b00d      	add	sp, #52	; 0x34
 80038c0:	e8bd 0f00 	ldmia.w	sp!, {r8, r9, sl, fp}
 80038c4:	bdf0      	pop	{r4, r5, r6, r7, pc}

080038c6 <_ZN42_$LT$$RF$T$u20$as$u20$core..fmt..Debug$GT$3fmt17h1145981e7fc76256E>:
 80038c6:	e9d0 0200 	ldrd	r0, r2, [r0]
 80038ca:	68d2      	ldr	r2, [r2, #12]
 80038cc:	4710      	bx	r2

080038ce <_ZN44_$LT$$RF$T$u20$as$u20$core..fmt..Display$GT$3fmt17h9dfd0d5ce4f240a4E>:
 80038ce:	460b      	mov	r3, r1
 80038d0:	e9d0 1200 	ldrd	r1, r2, [r0]
 80038d4:	4618      	mov	r0, r3
 80038d6:	f7ff bba5 	b.w	8003024 <_ZN4core3fmt9Formatter3pad17hbd7112f77e2050f2E>

080038da <HardFaultTrampoline>:
 80038da:	4670      	mov	r0, lr
 80038dc:	2104      	movs	r1, #4
 80038de:	4208      	tst	r0, r1
 80038e0:	d102      	bne.n	80038e8 <HardFaultTrampoline+0xe>
 80038e2:	f3ef 8008 	mrs	r0, MSP
 80038e6:	e002      	b.n	80038ee <HardFault_>
 80038e8:	f3ef 8009 	mrs	r0, PSP
 80038ec:	e7ff      	b.n	80038ee <HardFault_>

080038ee <HardFault_>:
 80038ee:	b580      	push	{r7, lr}
 80038f0:	466f      	mov	r7, sp
 80038f2:	b082      	sub	sp, #8
 80038f4:	9001      	str	r0, [sp, #4]
 80038f6:	e7ff      	b.n	80038f8 <HardFault_+0xa>
 80038f8:	2004      	movs	r0, #4
 80038fa:	f807 0c05 	strb.w	r0, [r7, #-5]
 80038fe:	f817 0c05 	ldrb.w	r0, [r7, #-5]
 8003902:	f7fe ff87 	bl	8002814 <_ZN4core4sync6atomic14compiler_fence17h2217b85b7f66ee30E>
 8003906:	e7f7      	b.n	80038f8 <HardFault_+0xa>
